(dp1
VHublot
p2
(dp3
V38mm
p4
(lp5
S'http://www.dbestwatches.com/index.php?main_page=product_info&cPath=190_360&products_id=43458'
p6
asV44mm
p7
(lp8
Vhttp://www.dbestwatches.com/index.php?main_page=product_info&cPath=190_265&products_id=43465
p9
aVhttp://www.dbestwatches.com/index.php?main_page=product_info&cPath=190_265&products_id=44358
p10
aVhttp://www.dbestwatches.com/index.php?main_page=product_info&cPath=190_265&products_id=44433
p11
aVhttp://www.dbestwatches.com/index.php?main_page=product_info&cPath=190_265&products_id=43466
p12
aVhttp://www.dbestwatches.com/index.php?main_page=product_info&cPath=190_265&products_id=43512
p13
aVhttp://www.dbestwatches.com/index.php?main_page=product_info&cPath=190_265&products_id=43469
p14
aVhttp://www.dbestwatches.com/index.php?main_page=product_info&cPath=190_265&products_id=43464
p15
aVhttp://www.dbestwatches.com/index.php?main_page=product_info&cPath=190_265&products_id=43460
p16
aVhttp://www.dbestwatches.com/index.php?main_page=product_info&cPath=190_265&products_id=43459
p17
asV41mm
p18
(lp19
Vhttp://www.dbestwatches.com/index.php?main_page=product_info&cPath=190_191&products_id=44891
p20
aVhttp://www.dbestwatches.com/index.php?main_page=product_info&cPath=190_191&products_id=40840
p21
aVhttp://www.dbestwatches.com/index.php?main_page=product_info&cPath=190_191&products_id=39090
p22
aVhttp://www.dbestwatches.com/index.php?main_page=product_info&cPath=190_191&products_id=43463
p23
assVAudemars Piguet
p24
(dp25
VRoyal Oak
p26
(lp27
Vhttp://www.dbestwatches.com/index.php?main_page=product_info&cPath=70_321&products_id=45361
p28
aVhttp://www.dbestwatches.com/index.php?main_page=product_info&cPath=70_321&products_id=42291
p29
aVhttp://www.dbestwatches.com/index.php?main_page=product_info&cPath=70_321&products_id=45372
p30
aVhttp://www.dbestwatches.com/index.php?main_page=product_info&cPath=70_321&products_id=44926
p31
aVhttp://www.dbestwatches.com/index.php?main_page=product_info&cPath=70_321&products_id=43367
p32
asVRoyal Oak Offshore
p33
(lp34
Vhttp://www.dbestwatches.com/index.php?main_page=product_info&cPath=70_71&products_id=45260
p35
aVhttp://www.dbestwatches.com/index.php?main_page=product_info&cPath=70_71&products_id=33866
p36
aVhttp://www.dbestwatches.com/index.php?main_page=product_info&cPath=70_71&products_id=38955
p37
aVhttp://www.dbestwatches.com/index.php?main_page=product_info&cPath=70_71&products_id=44731
p38
aVhttp://www.dbestwatches.com/index.php?main_page=product_info&cPath=70_71&products_id=39082
p39
aVhttp://www.dbestwatches.com/index.php?main_page=product_info&cPath=70_71&products_id=34764
p40
assVBell and Ross
p41
(dp42
VVintage 126
p43
(lp44
S'http://www.dbestwatches.com/index.php?main_page=product_info&cPath=97_203&products_id=45328'
p45
asVBR01
p46
(lp47
Vhttp://www.dbestwatches.com/index.php?main_page=product_info&cPath=97_169&products_id=43936
p48
aVhttp://www.dbestwatches.com/index.php?main_page=product_info&cPath=97_169&products_id=39844
p49
aVhttp://www.dbestwatches.com/index.php?main_page=product_info&cPath=97_169&products_id=39848
p50
aVhttp://www.dbestwatches.com/index.php?main_page=product_info&cPath=97_169&products_id=43142
p51
asVBR03
p52
(lp53
Vhttp://www.dbestwatches.com/index.php?main_page=product_info&cPath=97_205&products_id=41872
p54
aVhttp://www.dbestwatches.com/index.php?main_page=product_info&cPath=97_205&products_id=43715
p55
aVhttp://www.dbestwatches.com/index.php?main_page=product_info&cPath=97_205&products_id=44828
p56
aVhttp://www.dbestwatches.com/index.php?main_page=product_info&cPath=97_205&products_id=45401
p57
asVVintage 123
p58
(lp59
S'http://www.dbestwatches.com/index.php?main_page=product_info&cPath=97_204&products_id=39350'
p60
assVIWC
p61
(dp62
VPortuguese
p63
(lp64
Vhttp://www.dbestwatches.com/index.php?main_page=product_info&cPath=20_91&products_id=45510
p65
aVhttp://www.dbestwatches.com/index.php?main_page=product_info&cPath=20_91&products_id=42686
p66
aVhttp://www.dbestwatches.com/index.php?main_page=product_info&cPath=20_91&products_id=39598
p67
aVhttp://www.dbestwatches.com/index.php?main_page=product_info&cPath=20_91&products_id=44216
p68
aVhttp://www.dbestwatches.com/index.php?main_page=product_info&cPath=20_91&products_id=44594
p69
aVhttp://www.dbestwatches.com/index.php?main_page=product_info&cPath=20_91&products_id=45463
p70
aVhttp://www.dbestwatches.com/index.php?main_page=product_info&cPath=20_91&products_id=40941
p71
aVhttp://www.dbestwatches.com/index.php?main_page=product_info&cPath=20_91&products_id=45474
p72
aVhttp://www.dbestwatches.com/index.php?main_page=product_info&cPath=20_91&products_id=41299
p73
aVhttp://www.dbestwatches.com/index.php?main_page=product_info&cPath=20_91&products_id=42981
p74
aVhttp://www.dbestwatches.com/index.php?main_page=product_info&cPath=20_91&products_id=29147
p75
aVhttp://www.dbestwatches.com/index.php?main_page=product_info&cPath=20_91&products_id=36872
p76
aVhttp://www.dbestwatches.com/index.php?main_page=product_info&cPath=20_91&products_id=44038
p77
aVhttp://www.dbestwatches.com/index.php?main_page=product_info&cPath=20_91&products_id=45438
p78
aVhttp://www.dbestwatches.com/index.php?main_page=product_info&cPath=20_91&products_id=43741
p79
aVhttp://www.dbestwatches.com/index.php?main_page=product_info&cPath=20_91&products_id=45469
p80
aVhttp://www.dbestwatches.com/index.php?main_page=product_info&cPath=20_91&products_id=35726
p81
aVhttp://www.dbestwatches.com/index.php?main_page=product_info&cPath=20_91&products_id=40563
p82
aVhttp://www.dbestwatches.com/index.php?main_page=product_info&cPath=20_91&products_id=44038
p83
aVhttp://www.dbestwatches.com/index.php?main_page=product_info&cPath=20_91&products_id=45438
p84
aVhttp://www.dbestwatches.com/index.php?main_page=product_info&cPath=20_91&products_id=43741
p85
aVhttp://www.dbestwatches.com/index.php?main_page=product_info&cPath=20_91&products_id=45469
p86
aVhttp://www.dbestwatches.com/index.php?main_page=product_info&cPath=20_91&products_id=35726
p87
aVhttp://www.dbestwatches.com/index.php?main_page=product_info&cPath=20_91&products_id=40563
p88
asVPortofino
p89
(lp90
Vhttp://www.dbestwatches.com/index.php?main_page=product_info&cPath=20_450&products_id=45379
p91
aVhttp://www.dbestwatches.com/index.php?main_page=product_info&cPath=20_450&products_id=39702
p92
aVhttp://www.dbestwatches.com/index.php?main_page=product_info&cPath=20_450&products_id=44472
p93
asVAquatimer
p94
(lp95
Vhttp://www.dbestwatches.com/index.php?main_page=product_info&cPath=20_175&products_id=45923
p96
aVhttp://www.dbestwatches.com/index.php?main_page=product_info&cPath=20_175&products_id=44497
p97
aVhttp://www.dbestwatches.com/index.php?main_page=product_info&cPath=20_175&products_id=44865
p98
aVhttp://www.dbestwatches.com/index.php?main_page=product_info&cPath=20_175&products_id=44867
p99
aVhttp://www.dbestwatches.com/index.php?main_page=product_info&cPath=20_175&products_id=42752
p100
aVhttp://www.dbestwatches.com/index.php?main_page=product_info&cPath=20_175&products_id=45644
p101
aVhttp://www.dbestwatches.com/index.php?main_page=product_info&cPath=20_175&products_id=44230
p102
aVhttp://www.dbestwatches.com/index.php?main_page=product_info&cPath=20_175&products_id=45933
p103
aVhttp://www.dbestwatches.com/index.php?main_page=product_info&cPath=20_175&products_id=45929
p104
aVhttp://www.dbestwatches.com/index.php?main_page=product_info&cPath=20_175&products_id=40577
p105
aVhttp://www.dbestwatches.com/index.php?main_page=product_info&cPath=20_175&products_id=45924
p106
aVhttp://www.dbestwatches.com/index.php?main_page=product_info&cPath=20_175&products_id=44069
p107
aVhttp://www.dbestwatches.com/index.php?main_page=product_info&cPath=20_175&products_id=45346
p108
aVhttp://www.dbestwatches.com/index.php?main_page=product_info&cPath=20_175&products_id=43244
p109
aVhttp://www.dbestwatches.com/index.php?main_page=product_info&cPath=20_175&products_id=43651
p110
aVhttp://www.dbestwatches.com/index.php?main_page=product_info&cPath=20_175&products_id=45926
p111
aVhttp://www.dbestwatches.com/index.php?main_page=product_info&cPath=20_175&products_id=45932
p112
aVhttp://www.dbestwatches.com/index.php?main_page=product_info&cPath=20_175&products_id=45925
p113
aVhttp://www.dbestwatches.com/index.php?main_page=product_info&cPath=20_175&products_id=45931
p114
aVhttp://www.dbestwatches.com/index.php?main_page=product_info&cPath=20_175&products_id=44869
p115
aVhttp://www.dbestwatches.com/index.php?main_page=product_info&cPath=20_175&products_id=45928
p116
aVhttp://www.dbestwatches.com/index.php?main_page=product_info&cPath=20_175&products_id=45930
p117
aVhttp://www.dbestwatches.com/index.php?main_page=product_info&cPath=20_175&products_id=45920
p118
aVhttp://www.dbestwatches.com/index.php?main_page=product_info&cPath=20_175&products_id=45927
p119
aVhttp://www.dbestwatches.com/index.php?main_page=product_info&cPath=20_175&products_id=45919
p120
aVhttp://www.dbestwatches.com/index.php?main_page=product_info&cPath=20_175&products_id=45922
p121
aVhttp://www.dbestwatches.com/index.php?main_page=product_info&cPath=20_175&products_id=45921
p122
aVhttp://www.dbestwatches.com/index.php?main_page=product_info&cPath=20_175&products_id=45934
p123
aVhttp://www.dbestwatches.com/index.php?main_page=product_info&cPath=20_175&products_id=45935
p124
aVhttp://www.dbestwatches.com/index.php?main_page=product_info&cPath=20_175&products_id=45346
p125
aVhttp://www.dbestwatches.com/index.php?main_page=product_info&cPath=20_175&products_id=43244
p126
aVhttp://www.dbestwatches.com/index.php?main_page=product_info&cPath=20_175&products_id=43651
p127
aVhttp://www.dbestwatches.com/index.php?main_page=product_info&cPath=20_175&products_id=45926
p128
aVhttp://www.dbestwatches.com/index.php?main_page=product_info&cPath=20_175&products_id=45932
p129
aVhttp://www.dbestwatches.com/index.php?main_page=product_info&cPath=20_175&products_id=45925
p130
aVhttp://www.dbestwatches.com/index.php?main_page=product_info&cPath=20_175&products_id=45931
p131
aVhttp://www.dbestwatches.com/index.php?main_page=product_info&cPath=20_175&products_id=44869
p132
aVhttp://www.dbestwatches.com/index.php?main_page=product_info&cPath=20_175&products_id=45928
p133
aVhttp://www.dbestwatches.com/index.php?main_page=product_info&cPath=20_175&products_id=45930
p134
aVhttp://www.dbestwatches.com/index.php?main_page=product_info&cPath=20_175&products_id=45920
p135
aVhttp://www.dbestwatches.com/index.php?main_page=product_info&cPath=20_175&products_id=45927
p136
asVSpitfire
p137
(lp138
Vhttp://www.dbestwatches.com/index.php?main_page=product_info&cPath=20_139&products_id=45466
p139
aVhttp://www.dbestwatches.com/index.php?main_page=product_info&cPath=20_139&products_id=45938
p140
aVhttp://www.dbestwatches.com/index.php?main_page=product_info&cPath=20_139&products_id=45936
p141
aVhttp://www.dbestwatches.com/index.php?main_page=product_info&cPath=20_139&products_id=45937
p142
asVPilots
p143
(lp144
Vhttp://www.dbestwatches.com/index.php?main_page=product_info&cPath=20_260&products_id=45441
p145
aVhttp://www.dbestwatches.com/index.php?main_page=product_info&cPath=20_260&products_id=41732
p146
aVhttp://www.dbestwatches.com/index.php?main_page=product_info&cPath=20_260&products_id=44096
p147
aVhttp://www.dbestwatches.com/index.php?main_page=product_info&cPath=20_260&products_id=45026
p148
aVhttp://www.dbestwatches.com/index.php?main_page=product_info&cPath=20_260&products_id=42531
p149
aVhttp://www.dbestwatches.com/index.php?main_page=product_info&cPath=20_260&products_id=40779
p150
aVhttp://www.dbestwatches.com/index.php?main_page=product_info&cPath=20_260&products_id=43365
p151
aVhttp://www.dbestwatches.com/index.php?main_page=product_info&cPath=20_260&products_id=45381
p152
asVIngenieur
p153
(lp154
S'http://www.dbestwatches.com/index.php?main_page=product_info&cPath=20_181&products_id=43806'
p155
assVPanerai
p156
(dp157
VLuminor 1950
p158
(lp159
Vhttp://www.dbestwatches.com/index.php?main_page=product_info&cPath=73_80&products_id=44408
p160
aVhttp://www.dbestwatches.com/index.php?main_page=product_info&cPath=73_80&products_id=43729
p161
aVhttp://www.dbestwatches.com/index.php?main_page=product_info&cPath=73_80&products_id=43095
p162
aVhttp://www.dbestwatches.com/index.php?main_page=product_info&cPath=73_80&products_id=45266
p163
aVhttp://www.dbestwatches.com/index.php?main_page=product_info&cPath=73_80&products_id=45370
p164
aVhttp://www.dbestwatches.com/index.php?main_page=product_info&cPath=73_80&products_id=43191
p165
asVRadiomir
p166
(lp167
Vhttp://www.dbestwatches.com/index.php?main_page=product_info&cPath=73_120&products_id=36683
p168
aVhttp://www.dbestwatches.com/index.php?main_page=product_info&cPath=73_120&products_id=45687
p169
aVhttp://www.dbestwatches.com/index.php?main_page=product_info&cPath=73_120&products_id=36485
p170
aVhttp://www.dbestwatches.com/index.php?main_page=product_info&cPath=73_120&products_id=42634
p171
aVhttp://www.dbestwatches.com/index.php?main_page=product_info&cPath=73_120&products_id=42642
p172
aVhttp://www.dbestwatches.com/index.php?main_page=product_info&cPath=73_120&products_id=38498
p173
aVhttp://www.dbestwatches.com/index.php?main_page=product_info&cPath=73_120&products_id=42325
p174
aVhttp://www.dbestwatches.com/index.php?main_page=product_info&cPath=73_120&products_id=39790
p175
aVhttp://www.dbestwatches.com/index.php?main_page=product_info&cPath=73_120&products_id=41906
p176
aVhttp://www.dbestwatches.com/index.php?main_page=product_info&cPath=73_120&products_id=38505
p177
asVLuminor Power Reserve
p178
(lp179
Vhttp://www.dbestwatches.com/index.php?main_page=product_info&cPath=73_271&products_id=42957
p180
aVhttp://www.dbestwatches.com/index.php?main_page=product_info&cPath=73_271&products_id=41179
p181
asVLuminor Submersible
p182
(lp183
Vhttp://www.dbestwatches.com/index.php?main_page=product_info&cPath=73_90&products_id=40044
p184
aVhttp://www.dbestwatches.com/index.php?main_page=product_info&cPath=73_90&products_id=40926
p185
asVManifattura Luminor
p186
(lp187
Vhttp://www.dbestwatches.com/index.php?main_page=product_info&cPath=73_180&products_id=38809
p188
aVhttp://www.dbestwatches.com/index.php?main_page=product_info&cPath=73_180&products_id=41740
p189
aVhttp://www.dbestwatches.com/index.php?main_page=product_info&cPath=73_180&products_id=42687
p190
asVLuminor Chrono
p191
(lp192
S'http://www.dbestwatches.com/index.php?main_page=product_info&cPath=73_283&products_id=41301'
p193
asVLuminor GMT
p194
(lp195
Vhttp://www.dbestwatches.com/index.php?main_page=product_info&cPath=73_359&products_id=45369
p196
aVhttp://www.dbestwatches.com/index.php?main_page=product_info&cPath=73_359&products_id=45558
p197
aVhttp://www.dbestwatches.com/index.php?main_page=product_info&cPath=73_359&products_id=43444
p198
asVLuminor Marina
p199
(lp200
Vhttp://www.dbestwatches.com/index.php?main_page=product_info&cPath=73_232&products_id=43876
p201
aVhttp://www.dbestwatches.com/index.php?main_page=product_info&cPath=73_232&products_id=43584
p202
aVhttp://www.dbestwatches.com/index.php?main_page=product_info&cPath=73_232&products_id=41126
p203
aVhttp://www.dbestwatches.com/index.php?main_page=product_info&cPath=73_232&products_id=41554
p204
aVhttp://www.dbestwatches.com/index.php?main_page=product_info&cPath=73_232&products_id=39991
p205
aVhttp://www.dbestwatches.com/index.php?main_page=product_info&cPath=73_232&products_id=43922
p206
asVLuminor Base
p207
(lp208
Vhttp://www.dbestwatches.com/index.php?main_page=product_info&cPath=73_221&products_id=44061
p209
aVhttp://www.dbestwatches.com/index.php?main_page=product_info&cPath=73_221&products_id=43143
p210
aVhttp://www.dbestwatches.com/index.php?main_page=product_info&cPath=73_221&products_id=43218
p211
assVRolex
p212
(dp213
VDeepsea
p214
(lp215
Vhttp://www.dbestwatches.com/index.php?main_page=product_info&cPath=3_400&products_id=45709
p216
aVhttp://www.dbestwatches.com/index.php?main_page=product_info&cPath=3_400&products_id=44248
p217
asVAir-King
p218
(lp219
Vhttp://www.dbestwatches.com/index.php?main_page=product_info&cPath=3_105&products_id=42442
p220
aVhttp://www.dbestwatches.com/index.php?main_page=product_info&cPath=3_105&products_id=40176
p221
aVhttp://www.dbestwatches.com/index.php?main_page=product_info&cPath=3_105&products_id=45354
p222
aVhttp://www.dbestwatches.com/index.php?main_page=product_info&cPath=3_105&products_id=44088
p223
aVhttp://www.dbestwatches.com/index.php?main_page=product_info&cPath=3_105&products_id=40409
p224
aVhttp://www.dbestwatches.com/index.php?main_page=product_info&cPath=3_105&products_id=44978
p225
aVhttp://www.dbestwatches.com/index.php?main_page=product_info&cPath=3_105&products_id=42848
p226
aVhttp://www.dbestwatches.com/index.php?main_page=product_info&cPath=3_105&products_id=44419
p227
aVhttp://www.dbestwatches.com/index.php?main_page=product_info&cPath=3_105&products_id=45335
p228
aVhttp://www.dbestwatches.com/index.php?main_page=product_info&cPath=3_105&products_id=39087
p229
aVhttp://www.dbestwatches.com/index.php?main_page=product_info&cPath=3_105&products_id=44601
p230
aVhttp://www.dbestwatches.com/index.php?main_page=product_info&cPath=3_105&products_id=43680
p231
aVhttp://www.dbestwatches.com/index.php?main_page=product_info&cPath=3_105&products_id=44542
p232
aVhttp://www.dbestwatches.com/index.php?main_page=product_info&cPath=3_105&products_id=35855
p233
aVhttp://www.dbestwatches.com/index.php?main_page=product_info&cPath=3_105&products_id=45054
p234
aVhttp://www.dbestwatches.com/index.php?main_page=product_info&cPath=3_105&products_id=36101
p235
aVhttp://www.dbestwatches.com/index.php?main_page=product_info&cPath=3_105&products_id=41167
p236
aVhttp://www.dbestwatches.com/index.php?main_page=product_info&cPath=3_105&products_id=44656
p237
aVhttp://www.dbestwatches.com/index.php?main_page=product_info&cPath=3_105&products_id=42374
p238
aVhttp://www.dbestwatches.com/index.php?main_page=product_info&cPath=3_105&products_id=44634
p239
aVhttp://www.dbestwatches.com/index.php?main_page=product_info&cPath=3_105&products_id=37656
p240
aVhttp://www.dbestwatches.com/index.php?main_page=product_info&cPath=3_105&products_id=37473
p241
aVhttp://www.dbestwatches.com/index.php?main_page=product_info&cPath=3_105&products_id=35797
p242
aVhttp://www.dbestwatches.com/index.php?main_page=product_info&cPath=3_105&products_id=44458
p243
aVhttp://www.dbestwatches.com/index.php?main_page=product_info&cPath=3_105&products_id=44542
p244
aVhttp://www.dbestwatches.com/index.php?main_page=product_info&cPath=3_105&products_id=35855
p245
aVhttp://www.dbestwatches.com/index.php?main_page=product_info&cPath=3_105&products_id=45054
p246
aVhttp://www.dbestwatches.com/index.php?main_page=product_info&cPath=3_105&products_id=36101
p247
aVhttp://www.dbestwatches.com/index.php?main_page=product_info&cPath=3_105&products_id=41167
p248
aVhttp://www.dbestwatches.com/index.php?main_page=product_info&cPath=3_105&products_id=44656
p249
aVhttp://www.dbestwatches.com/index.php?main_page=product_info&cPath=3_105&products_id=42374
p250
aVhttp://www.dbestwatches.com/index.php?main_page=product_info&cPath=3_105&products_id=44634
p251
aVhttp://www.dbestwatches.com/index.php?main_page=product_info&cPath=3_105&products_id=37656
p252
aVhttp://www.dbestwatches.com/index.php?main_page=product_info&cPath=3_105&products_id=37473
p253
aVhttp://www.dbestwatches.com/index.php?main_page=product_info&cPath=3_105&products_id=35797
p254
aVhttp://www.dbestwatches.com/index.php?main_page=product_info&cPath=3_105&products_id=44458
p255
asVGMT Master
p256
(lp257
Vhttp://www.dbestwatches.com/index.php?main_page=product_info&cPath=3_95&products_id=44310
p258
aVhttp://www.dbestwatches.com/index.php?main_page=product_info&cPath=3_95&products_id=45113
p259
aVhttp://www.dbestwatches.com/index.php?main_page=product_info&cPath=3_95&products_id=44756
p260
aVhttp://www.dbestwatches.com/index.php?main_page=product_info&cPath=3_95&products_id=44698
p261
aVhttp://www.dbestwatches.com/index.php?main_page=product_info&cPath=3_95&products_id=41644
p262
aVhttp://www.dbestwatches.com/index.php?main_page=product_info&cPath=3_95&products_id=43995
p263
aVhttp://www.dbestwatches.com/index.php?main_page=product_info&cPath=3_95&products_id=45597
p264
aVhttp://www.dbestwatches.com/index.php?main_page=product_info&cPath=3_95&products_id=41289
p265
aVhttp://www.dbestwatches.com/index.php?main_page=product_info&cPath=3_95&products_id=42626
p266
aVhttp://www.dbestwatches.com/index.php?main_page=product_info&cPath=3_95&products_id=39178
p267
aVhttp://www.dbestwatches.com/index.php?main_page=product_info&cPath=3_95&products_id=45847
p268
aVhttp://www.dbestwatches.com/index.php?main_page=product_info&cPath=3_95&products_id=45842
p269
aVhttp://www.dbestwatches.com/index.php?main_page=product_info&cPath=3_95&products_id=43704
p270
aVhttp://www.dbestwatches.com/index.php?main_page=product_info&cPath=3_95&products_id=37090
p271
aVhttp://www.dbestwatches.com/index.php?main_page=product_info&cPath=3_95&products_id=35514
p272
aVhttp://www.dbestwatches.com/index.php?main_page=product_info&cPath=3_95&products_id=45838
p273
aVhttp://www.dbestwatches.com/index.php?main_page=product_info&cPath=3_95&products_id=45839
p274
aVhttp://www.dbestwatches.com/index.php?main_page=product_info&cPath=3_95&products_id=45840
p275
aVhttp://www.dbestwatches.com/index.php?main_page=product_info&cPath=3_95&products_id=45841
p276
aVhttp://www.dbestwatches.com/index.php?main_page=product_info&cPath=3_95&products_id=43704
p277
aVhttp://www.dbestwatches.com/index.php?main_page=product_info&cPath=3_95&products_id=37090
p278
aVhttp://www.dbestwatches.com/index.php?main_page=product_info&cPath=3_95&products_id=35514
p279
aVhttp://www.dbestwatches.com/index.php?main_page=product_info&cPath=3_95&products_id=45838
p280
aVhttp://www.dbestwatches.com/index.php?main_page=product_info&cPath=3_95&products_id=45839
p281
aVhttp://www.dbestwatches.com/index.php?main_page=product_info&cPath=3_95&products_id=45840
p282
aVhttp://www.dbestwatches.com/index.php?main_page=product_info&cPath=3_95&products_id=45841
p283
asVDaytona
p284
(lp285
Vhttp://www.dbestwatches.com/index.php?main_page=product_info&cPath=3_107&products_id=38959
p286
aVhttp://www.dbestwatches.com/index.php?main_page=product_info&cPath=3_107&products_id=42639
p287
aVhttp://www.dbestwatches.com/index.php?main_page=product_info&cPath=3_107&products_id=42099
p288
aVhttp://www.dbestwatches.com/index.php?main_page=product_info&cPath=3_107&products_id=44890
p289
aVhttp://www.dbestwatches.com/index.php?main_page=product_info&cPath=3_107&products_id=38486
p290
aVhttp://www.dbestwatches.com/index.php?main_page=product_info&cPath=3_107&products_id=44411
p291
aVhttp://www.dbestwatches.com/index.php?main_page=product_info&cPath=3_107&products_id=44546
p292
aVhttp://www.dbestwatches.com/index.php?main_page=product_info&cPath=3_107&products_id=45633
p293
aVhttp://www.dbestwatches.com/index.php?main_page=product_info&cPath=3_107&products_id=44743
p294
aVhttp://www.dbestwatches.com/index.php?main_page=product_info&cPath=3_107&products_id=45400
p295
aVhttp://www.dbestwatches.com/index.php?main_page=product_info&cPath=3_107&products_id=42954
p296
aVhttp://www.dbestwatches.com/index.php?main_page=product_info&cPath=3_107&products_id=44663
p297
aVhttp://www.dbestwatches.com/index.php?main_page=product_info&cPath=3_107&products_id=44311
p298
aVhttp://www.dbestwatches.com/index.php?main_page=product_info&cPath=3_107&products_id=44142
p299
aVhttp://www.dbestwatches.com/index.php?main_page=product_info&cPath=3_107&products_id=43145
p300
aVhttp://www.dbestwatches.com/index.php?main_page=product_info&cPath=3_107&products_id=41254
p301
aVhttp://www.dbestwatches.com/index.php?main_page=product_info&cPath=3_107&products_id=44644
p302
aVhttp://www.dbestwatches.com/index.php?main_page=product_info&cPath=3_107&products_id=45609
p303
aVhttp://www.dbestwatches.com/index.php?main_page=product_info&cPath=3_107&products_id=45076
p304
aVhttp://www.dbestwatches.com/index.php?main_page=product_info&cPath=3_107&products_id=43964
p305
aVhttp://www.dbestwatches.com/index.php?main_page=product_info&cPath=3_107&products_id=42528
p306
aVhttp://www.dbestwatches.com/index.php?main_page=product_info&cPath=3_107&products_id=43705
p307
aVhttp://www.dbestwatches.com/index.php?main_page=product_info&cPath=3_107&products_id=44214
p308
aVhttp://www.dbestwatches.com/index.php?main_page=product_info&cPath=3_107&products_id=38803
p309
aVhttp://www.dbestwatches.com/index.php?main_page=product_info&cPath=3_107&products_id=43125
p310
aVhttp://www.dbestwatches.com/index.php?main_page=product_info&cPath=3_107&products_id=43532
p311
aVhttp://www.dbestwatches.com/index.php?main_page=product_info&cPath=3_107&products_id=45729
p312
aVhttp://www.dbestwatches.com/index.php?main_page=product_info&cPath=3_107&products_id=43731
p313
aVhttp://www.dbestwatches.com/index.php?main_page=product_info&cPath=3_107&products_id=43837
p314
aVhttp://www.dbestwatches.com/index.php?main_page=product_info&cPath=3_107&products_id=43642
p315
aVhttp://www.dbestwatches.com/index.php?main_page=product_info&cPath=3_107&products_id=42139
p316
aVhttp://www.dbestwatches.com/index.php?main_page=product_info&cPath=3_107&products_id=39060
p317
aVhttp://www.dbestwatches.com/index.php?main_page=product_info&cPath=3_107&products_id=44573
p318
aVhttp://www.dbestwatches.com/index.php?main_page=product_info&cPath=3_107&products_id=43541
p319
aVhttp://www.dbestwatches.com/index.php?main_page=product_info&cPath=3_107&products_id=39244
p320
aVhttp://www.dbestwatches.com/index.php?main_page=product_info&cPath=3_107&products_id=40759
p321
aVhttp://www.dbestwatches.com/index.php?main_page=product_info&cPath=3_107&products_id=45429
p322
aVhttp://www.dbestwatches.com/index.php?main_page=product_info&cPath=3_107&products_id=38258
p323
aVhttp://www.dbestwatches.com/index.php?main_page=product_info&cPath=3_107&products_id=45852
p324
aVhttp://www.dbestwatches.com/index.php?main_page=product_info&cPath=3_107&products_id=45947
p325
aVhttp://www.dbestwatches.com/index.php?main_page=product_info&cPath=3_107&products_id=35824
p326
aVhttp://www.dbestwatches.com/index.php?main_page=product_info&cPath=3_107&products_id=44311
p327
aVhttp://www.dbestwatches.com/index.php?main_page=product_info&cPath=3_107&products_id=44142
p328
aVhttp://www.dbestwatches.com/index.php?main_page=product_info&cPath=3_107&products_id=43145
p329
aVhttp://www.dbestwatches.com/index.php?main_page=product_info&cPath=3_107&products_id=41254
p330
aVhttp://www.dbestwatches.com/index.php?main_page=product_info&cPath=3_107&products_id=44644
p331
aVhttp://www.dbestwatches.com/index.php?main_page=product_info&cPath=3_107&products_id=45609
p332
aVhttp://www.dbestwatches.com/index.php?main_page=product_info&cPath=3_107&products_id=45076
p333
aVhttp://www.dbestwatches.com/index.php?main_page=product_info&cPath=3_107&products_id=43964
p334
aVhttp://www.dbestwatches.com/index.php?main_page=product_info&cPath=3_107&products_id=42528
p335
aVhttp://www.dbestwatches.com/index.php?main_page=product_info&cPath=3_107&products_id=43705
p336
aVhttp://www.dbestwatches.com/index.php?main_page=product_info&cPath=3_107&products_id=44214
p337
aVhttp://www.dbestwatches.com/index.php?main_page=product_info&cPath=3_107&products_id=38803
p338
asVDatejust
p339
(lp340
Vhttp://www.dbestwatches.com/index.php?main_page=product_info&cPath=3_115&products_id=45173
p341
aVhttp://www.dbestwatches.com/index.php?main_page=product_info&cPath=3_115&products_id=44429
p342
aVhttp://www.dbestwatches.com/index.php?main_page=product_info&cPath=3_115&products_id=45169
p343
aVhttp://www.dbestwatches.com/index.php?main_page=product_info&cPath=3_115&products_id=45152
p344
aVhttp://www.dbestwatches.com/index.php?main_page=product_info&cPath=3_115&products_id=42711
p345
aVhttp://www.dbestwatches.com/index.php?main_page=product_info&cPath=3_115&products_id=44737
p346
aVhttp://www.dbestwatches.com/index.php?main_page=product_info&cPath=3_115&products_id=44744
p347
aVhttp://www.dbestwatches.com/index.php?main_page=product_info&cPath=3_115&products_id=40154
p348
aVhttp://www.dbestwatches.com/index.php?main_page=product_info&cPath=3_115&products_id=45456
p349
aVhttp://www.dbestwatches.com/index.php?main_page=product_info&cPath=3_115&products_id=45428
p350
aVhttp://www.dbestwatches.com/index.php?main_page=product_info&cPath=3_115&products_id=44647
p351
aVhttp://www.dbestwatches.com/index.php?main_page=product_info&cPath=3_115&products_id=44859
p352
aVhttp://www.dbestwatches.com/index.php?main_page=product_info&cPath=3_115&products_id=45676
p353
aVhttp://www.dbestwatches.com/index.php?main_page=product_info&cPath=3_115&products_id=45611
p354
aVhttp://www.dbestwatches.com/index.php?main_page=product_info&cPath=3_115&products_id=45423
p355
aVhttp://www.dbestwatches.com/index.php?main_page=product_info&cPath=3_115&products_id=44682
p356
aVhttp://www.dbestwatches.com/index.php?main_page=product_info&cPath=3_115&products_id=39186
p357
aVhttp://www.dbestwatches.com/index.php?main_page=product_info&cPath=3_115&products_id=39402
p358
aVhttp://www.dbestwatches.com/index.php?main_page=product_info&cPath=3_115&products_id=43359
p359
aVhttp://www.dbestwatches.com/index.php?main_page=product_info&cPath=3_115&products_id=43267
p360
aVhttp://www.dbestwatches.com/index.php?main_page=product_info&cPath=3_115&products_id=45413
p361
aVhttp://www.dbestwatches.com/index.php?main_page=product_info&cPath=3_115&products_id=45634
p362
aVhttp://www.dbestwatches.com/index.php?main_page=product_info&cPath=3_115&products_id=42892
p363
aVhttp://www.dbestwatches.com/index.php?main_page=product_info&cPath=3_115&products_id=45639
p364
aVhttp://www.dbestwatches.com/index.php?main_page=product_info&cPath=3_115&products_id=45174
p365
aVhttp://www.dbestwatches.com/index.php?main_page=product_info&cPath=3_115&products_id=44810
p366
aVhttp://www.dbestwatches.com/index.php?main_page=product_info&cPath=3_115&products_id=36392
p367
aVhttp://www.dbestwatches.com/index.php?main_page=product_info&cPath=3_115&products_id=45713
p368
aVhttp://www.dbestwatches.com/index.php?main_page=product_info&cPath=3_115&products_id=44107
p369
aVhttp://www.dbestwatches.com/index.php?main_page=product_info&cPath=3_115&products_id=44799
p370
aVhttp://www.dbestwatches.com/index.php?main_page=product_info&cPath=3_115&products_id=41751
p371
aVhttp://www.dbestwatches.com/index.php?main_page=product_info&cPath=3_115&products_id=42889
p372
aVhttp://www.dbestwatches.com/index.php?main_page=product_info&cPath=3_115&products_id=44762
p373
aVhttp://www.dbestwatches.com/index.php?main_page=product_info&cPath=3_115&products_id=42874
p374
aVhttp://www.dbestwatches.com/index.php?main_page=product_info&cPath=3_115&products_id=44742
p375
aVhttp://www.dbestwatches.com/index.php?main_page=product_info&cPath=3_115&products_id=45177
p376
aVhttp://www.dbestwatches.com/index.php?main_page=product_info&cPath=3_115&products_id=45180
p377
aVhttp://www.dbestwatches.com/index.php?main_page=product_info&cPath=3_115&products_id=42944
p378
aVhttp://www.dbestwatches.com/index.php?main_page=product_info&cPath=3_115&products_id=43733
p379
aVhttp://www.dbestwatches.com/index.php?main_page=product_info&cPath=3_115&products_id=44649
p380
aVhttp://www.dbestwatches.com/index.php?main_page=product_info&cPath=3_115&products_id=45213
p381
aVhttp://www.dbestwatches.com/index.php?main_page=product_info&cPath=3_115&products_id=44788
p382
aVhttp://www.dbestwatches.com/index.php?main_page=product_info&cPath=3_115&products_id=43844
p383
aVhttp://www.dbestwatches.com/index.php?main_page=product_info&cPath=3_115&products_id=40386
p384
aVhttp://www.dbestwatches.com/index.php?main_page=product_info&cPath=3_115&products_id=44745
p385
aVhttp://www.dbestwatches.com/index.php?main_page=product_info&cPath=3_115&products_id=44950
p386
aVhttp://www.dbestwatches.com/index.php?main_page=product_info&cPath=3_115&products_id=45645
p387
aVhttp://www.dbestwatches.com/index.php?main_page=product_info&cPath=3_115&products_id=44347
p388
aVhttp://www.dbestwatches.com/index.php?main_page=product_info&cPath=3_115&products_id=42145
p389
aVhttp://www.dbestwatches.com/index.php?main_page=product_info&cPath=3_115&products_id=45257
p390
aVhttp://www.dbestwatches.com/index.php?main_page=product_info&cPath=3_115&products_id=42473
p391
aVhttp://www.dbestwatches.com/index.php?main_page=product_info&cPath=3_115&products_id=44298
p392
aVhttp://www.dbestwatches.com/index.php?main_page=product_info&cPath=3_115&products_id=43703
p393
aVhttp://www.dbestwatches.com/index.php?main_page=product_info&cPath=3_115&products_id=45761
p394
aVhttp://www.dbestwatches.com/index.php?main_page=product_info&cPath=3_115&products_id=45608
p395
aVhttp://www.dbestwatches.com/index.php?main_page=product_info&cPath=3_115&products_id=43481
p396
aVhttp://www.dbestwatches.com/index.php?main_page=product_info&cPath=3_115&products_id=43954
p397
aVhttp://www.dbestwatches.com/index.php?main_page=product_info&cPath=3_115&products_id=40957
p398
aVhttp://www.dbestwatches.com/index.php?main_page=product_info&cPath=3_115&products_id=42947
p399
aVhttp://www.dbestwatches.com/index.php?main_page=product_info&cPath=3_115&products_id=45454
p400
aVhttp://www.dbestwatches.com/index.php?main_page=product_info&cPath=3_115&products_id=43076
p401
aVhttp://www.dbestwatches.com/index.php?main_page=product_info&cPath=3_115&products_id=44873
p402
aVhttp://www.dbestwatches.com/index.php?main_page=product_info&cPath=3_115&products_id=43163
p403
aVhttp://www.dbestwatches.com/index.php?main_page=product_info&cPath=3_115&products_id=44565
p404
aVhttp://www.dbestwatches.com/index.php?main_page=product_info&cPath=3_115&products_id=45637
p405
aVhttp://www.dbestwatches.com/index.php?main_page=product_info&cPath=3_115&products_id=43892
p406
aVhttp://www.dbestwatches.com/index.php?main_page=product_info&cPath=3_115&products_id=44655
p407
aVhttp://www.dbestwatches.com/index.php?main_page=product_info&cPath=3_115&products_id=42881
p408
aVhttp://www.dbestwatches.com/index.php?main_page=product_info&cPath=3_115&products_id=43555
p409
aVhttp://www.dbestwatches.com/index.php?main_page=product_info&cPath=3_115&products_id=42727
p410
aVhttp://www.dbestwatches.com/index.php?main_page=product_info&cPath=3_115&products_id=42890
p411
aVhttp://www.dbestwatches.com/index.php?main_page=product_info&cPath=3_115&products_id=45082
p412
aVhttp://www.dbestwatches.com/index.php?main_page=product_info&cPath=3_115&products_id=45676
p413
aVhttp://www.dbestwatches.com/index.php?main_page=product_info&cPath=3_115&products_id=45611
p414
aVhttp://www.dbestwatches.com/index.php?main_page=product_info&cPath=3_115&products_id=45423
p415
aVhttp://www.dbestwatches.com/index.php?main_page=product_info&cPath=3_115&products_id=44682
p416
aVhttp://www.dbestwatches.com/index.php?main_page=product_info&cPath=3_115&products_id=39186
p417
aVhttp://www.dbestwatches.com/index.php?main_page=product_info&cPath=3_115&products_id=39402
p418
aVhttp://www.dbestwatches.com/index.php?main_page=product_info&cPath=3_115&products_id=43359
p419
aVhttp://www.dbestwatches.com/index.php?main_page=product_info&cPath=3_115&products_id=43267
p420
aVhttp://www.dbestwatches.com/index.php?main_page=product_info&cPath=3_115&products_id=45413
p421
aVhttp://www.dbestwatches.com/index.php?main_page=product_info&cPath=3_115&products_id=45634
p422
aVhttp://www.dbestwatches.com/index.php?main_page=product_info&cPath=3_115&products_id=42892
p423
aVhttp://www.dbestwatches.com/index.php?main_page=product_info&cPath=3_115&products_id=45639
p424
asVMilgauss
p425
(lp426
Vhttp://www.dbestwatches.com/index.php?main_page=product_info&cPath=3_62&products_id=43737
p427
aVhttp://www.dbestwatches.com/index.php?main_page=product_info&cPath=3_62&products_id=44776
p428
asVSky-Dweller
p429
(lp430
Vhttp://www.dbestwatches.com/index.php?main_page=product_info&cPath=3_226&products_id=45697
p431
aVhttp://www.dbestwatches.com/index.php?main_page=product_info&cPath=3_226&products_id=44359
p432
aVhttp://www.dbestwatches.com/index.php?main_page=product_info&cPath=3_226&products_id=39863
p433
aVhttp://www.dbestwatches.com/index.php?main_page=product_info&cPath=3_226&products_id=42585
p434
aVhttp://www.dbestwatches.com/index.php?main_page=product_info&cPath=3_226&products_id=45859
p435
aVhttp://www.dbestwatches.com/index.php?main_page=product_info&cPath=3_226&products_id=45857
p436
aVhttp://www.dbestwatches.com/index.php?main_page=product_info&cPath=3_226&products_id=45860
p437
aVhttp://www.dbestwatches.com/index.php?main_page=product_info&cPath=3_226&products_id=45861
p438
aVhttp://www.dbestwatches.com/index.php?main_page=product_info&cPath=3_226&products_id=45858
p439
aVhttp://www.dbestwatches.com/index.php?main_page=product_info&cPath=3_226&products_id=45862
p440
aVhttp://www.dbestwatches.com/index.php?main_page=product_info&cPath=3_226&products_id=45864
p441
aVhttp://www.dbestwatches.com/index.php?main_page=product_info&cPath=3_226&products_id=45865
p442
aVhttp://www.dbestwatches.com/index.php?main_page=product_info&cPath=3_226&products_id=45863
p443
aVhttp://www.dbestwatches.com/index.php?main_page=product_info&cPath=3_226&products_id=45863
p444
asVSubmariner
p445
(lp446
Vhttp://www.dbestwatches.com/index.php?main_page=product_info&cPath=3_151&products_id=44245
p447
aVhttp://www.dbestwatches.com/index.php?main_page=product_info&cPath=3_151&products_id=42040
p448
aVhttp://www.dbestwatches.com/index.php?main_page=product_info&cPath=3_151&products_id=43158
p449
aVhttp://www.dbestwatches.com/index.php?main_page=product_info&cPath=3_151&products_id=44371
p450
aVhttp://www.dbestwatches.com/index.php?main_page=product_info&cPath=3_151&products_id=44800
p451
aVhttp://www.dbestwatches.com/index.php?main_page=product_info&cPath=3_151&products_id=44672
p452
aVhttp://www.dbestwatches.com/index.php?main_page=product_info&cPath=3_151&products_id=37919
p453
asVPearlmaster
p454
(lp455
Vhttp://www.dbestwatches.com/index.php?main_page=product_info&cPath=3_52&products_id=44580
p456
aVhttp://www.dbestwatches.com/index.php?main_page=product_info&cPath=3_52&products_id=43942
p457
aVhttp://www.dbestwatches.com/index.php?main_page=product_info&cPath=3_52&products_id=45371
p458
aVhttp://www.dbestwatches.com/index.php?main_page=product_info&cPath=3_52&products_id=44540
p459
aVhttp://www.dbestwatches.com/index.php?main_page=product_info&cPath=3_52&products_id=36957
p460
aVhttp://www.dbestwatches.com/index.php?main_page=product_info&cPath=3_52&products_id=31713
p461
aVhttp://www.dbestwatches.com/index.php?main_page=product_info&cPath=3_52&products_id=39784
p462
aVhttp://www.dbestwatches.com/index.php?main_page=product_info&cPath=3_52&products_id=44149
p463
aVhttp://www.dbestwatches.com/index.php?main_page=product_info&cPath=3_52&products_id=44556
p464
asVExplorer
p465
(lp466
Vhttp://www.dbestwatches.com/index.php?main_page=product_info&cPath=3_391&products_id=41473
p467
aVhttp://www.dbestwatches.com/index.php?main_page=product_info&cPath=3_391&products_id=39370
p468
aVhttp://www.dbestwatches.com/index.php?main_page=product_info&cPath=3_391&products_id=44998
p469
aVhttp://www.dbestwatches.com/index.php?main_page=product_info&cPath=3_391&products_id=44848
p470
asVDay-Date
p471
(lp472
Vhttp://www.dbestwatches.com/index.php?main_page=product_info&cPath=3_55&products_id=44305
p473
aVhttp://www.dbestwatches.com/index.php?main_page=product_info&cPath=3_55&products_id=41977
p474
aVhttp://www.dbestwatches.com/index.php?main_page=product_info&cPath=3_55&products_id=38638
p475
aVhttp://www.dbestwatches.com/index.php?main_page=product_info&cPath=3_55&products_id=42630
p476
aVhttp://www.dbestwatches.com/index.php?main_page=product_info&cPath=3_55&products_id=35722
p477
aVhttp://www.dbestwatches.com/index.php?main_page=product_info&cPath=3_55&products_id=43725
p478
aVhttp://www.dbestwatches.com/index.php?main_page=product_info&cPath=3_55&products_id=44482
p479
aVhttp://www.dbestwatches.com/index.php?main_page=product_info&cPath=3_55&products_id=43973
p480
aVhttp://www.dbestwatches.com/index.php?main_page=product_info&cPath=3_55&products_id=42791
p481
aVhttp://www.dbestwatches.com/index.php?main_page=product_info&cPath=3_55&products_id=44612
p482
aVhttp://www.dbestwatches.com/index.php?main_page=product_info&cPath=3_55&products_id=44712
p483
aVhttp://www.dbestwatches.com/index.php?main_page=product_info&cPath=3_55&products_id=44036
p484
aVhttp://www.dbestwatches.com/index.php?main_page=product_info&cPath=3_55&products_id=45856
p485
aVhttp://www.dbestwatches.com/index.php?main_page=product_info&cPath=3_55&products_id=44491
p486
aVhttp://www.dbestwatches.com/index.php?main_page=product_info&cPath=3_55&products_id=44775
p487
aVhttp://www.dbestwatches.com/index.php?main_page=product_info&cPath=3_55&products_id=36967
p488
aVhttp://www.dbestwatches.com/index.php?main_page=product_info&cPath=3_55&products_id=40844
p489
aVhttp://www.dbestwatches.com/index.php?main_page=product_info&cPath=3_55&products_id=44181
p490
aVhttp://www.dbestwatches.com/index.php?main_page=product_info&cPath=3_55&products_id=39246
p491
aVhttp://www.dbestwatches.com/index.php?main_page=product_info&cPath=3_55&products_id=45762
p492
aVhttp://www.dbestwatches.com/index.php?main_page=product_info&cPath=3_55&products_id=45959
p493
aVhttp://www.dbestwatches.com/index.php?main_page=product_info&cPath=3_55&products_id=43318
p494
aVhttp://www.dbestwatches.com/index.php?main_page=product_info&cPath=3_55&products_id=45396
p495
aVhttp://www.dbestwatches.com/index.php?main_page=product_info&cPath=3_55&products_id=45610
p496
aVhttp://www.dbestwatches.com/index.php?main_page=product_info&cPath=3_55&products_id=38944
p497
aVhttp://www.dbestwatches.com/index.php?main_page=product_info&cPath=3_55&products_id=38981
p498
aVhttp://www.dbestwatches.com/index.php?main_page=product_info&cPath=3_55&products_id=38939
p499
aVhttp://www.dbestwatches.com/index.php?main_page=product_info&cPath=3_55&products_id=42208
p500
aVhttp://www.dbestwatches.com/index.php?main_page=product_info&cPath=3_55&products_id=45946
p501
aVhttp://www.dbestwatches.com/index.php?main_page=product_info&cPath=3_55&products_id=45960
p502
aVhttp://www.dbestwatches.com/index.php?main_page=product_info&cPath=3_55&products_id=45866
p503
aVhttp://www.dbestwatches.com/index.php?main_page=product_info&cPath=3_55&products_id=37994
p504
aVhttp://www.dbestwatches.com/index.php?main_page=product_info&cPath=3_55&products_id=40228
p505
aVhttp://www.dbestwatches.com/index.php?main_page=product_info&cPath=3_55&products_id=32384
p506
aVhttp://www.dbestwatches.com/index.php?main_page=product_info&cPath=3_55&products_id=32382
p507
aVhttp://www.dbestwatches.com/index.php?main_page=product_info&cPath=3_55&products_id=45856
p508
aVhttp://www.dbestwatches.com/index.php?main_page=product_info&cPath=3_55&products_id=44491
p509
aVhttp://www.dbestwatches.com/index.php?main_page=product_info&cPath=3_55&products_id=44775
p510
aVhttp://www.dbestwatches.com/index.php?main_page=product_info&cPath=3_55&products_id=36967
p511
aVhttp://www.dbestwatches.com/index.php?main_page=product_info&cPath=3_55&products_id=40844
p512
aVhttp://www.dbestwatches.com/index.php?main_page=product_info&cPath=3_55&products_id=44181
p513
aVhttp://www.dbestwatches.com/index.php?main_page=product_info&cPath=3_55&products_id=39246
p514
aVhttp://www.dbestwatches.com/index.php?main_page=product_info&cPath=3_55&products_id=45762
p515
aVhttp://www.dbestwatches.com/index.php?main_page=product_info&cPath=3_55&products_id=45959
p516
aVhttp://www.dbestwatches.com/index.php?main_page=product_info&cPath=3_55&products_id=43318
p517
aVhttp://www.dbestwatches.com/index.php?main_page=product_info&cPath=3_55&products_id=45396
p518
aVhttp://www.dbestwatches.com/index.php?main_page=product_info&cPath=3_55&products_id=45610
p519
asVYacht-Master
p520
(lp521
Vhttp://www.dbestwatches.com/index.php?main_page=product_info&cPath=3_159&products_id=45636
p522
aVhttp://www.dbestwatches.com/index.php?main_page=product_info&cPath=3_159&products_id=44409
p523
aVhttp://www.dbestwatches.com/index.php?main_page=product_info&cPath=3_159&products_id=45855
p524
aVhttp://www.dbestwatches.com/index.php?main_page=product_info&cPath=3_159&products_id=44576
p525
aVhttp://www.dbestwatches.com/index.php?main_page=product_info&cPath=3_159&products_id=43121
p526
aVhttp://www.dbestwatches.com/index.php?main_page=product_info&cPath=3_159&products_id=45854
p527
aVhttp://www.dbestwatches.com/index.php?main_page=product_info&cPath=3_159&products_id=43996
p528
aVhttp://www.dbestwatches.com/index.php?main_page=product_info&cPath=3_159&products_id=44687
p529
aVhttp://www.dbestwatches.com/index.php?main_page=product_info&cPath=3_159&products_id=42230
p530
aVhttp://www.dbestwatches.com/index.php?main_page=product_info&cPath=3_159&products_id=40071
p531
aVhttp://www.dbestwatches.com/index.php?main_page=product_info&cPath=3_159&products_id=45160
p532
aVhttp://www.dbestwatches.com/index.php?main_page=product_info&cPath=3_159&products_id=42341
p533
aVhttp://www.dbestwatches.com/index.php?main_page=product_info&cPath=3_159&products_id=44335
p534
aVhttp://www.dbestwatches.com/index.php?main_page=product_info&cPath=3_159&products_id=42080
p535
aVhttp://www.dbestwatches.com/index.php?main_page=product_info&cPath=3_159&products_id=42138
p536
aVhttp://www.dbestwatches.com/index.php?main_page=product_info&cPath=3_159&products_id=44545
p537
aVhttp://www.dbestwatches.com/index.php?main_page=product_info&cPath=3_159&products_id=44680
p538
aVhttp://www.dbestwatches.com/index.php?main_page=product_info&cPath=3_159&products_id=43931
p539
aVhttp://www.dbestwatches.com/index.php?main_page=product_info&cPath=3_159&products_id=45958
p540
aVhttp://www.dbestwatches.com/index.php?main_page=product_info&cPath=3_159&products_id=44335
p541
aVhttp://www.dbestwatches.com/index.php?main_page=product_info&cPath=3_159&products_id=42080
p542
aVhttp://www.dbestwatches.com/index.php?main_page=product_info&cPath=3_159&products_id=42138
p543
aVhttp://www.dbestwatches.com/index.php?main_page=product_info&cPath=3_159&products_id=44545
p544
aVhttp://www.dbestwatches.com/index.php?main_page=product_info&cPath=3_159&products_id=44680
p545
aVhttp://www.dbestwatches.com/index.php?main_page=product_info&cPath=3_159&products_id=43931
p546
aVhttp://www.dbestwatches.com/index.php?main_page=product_info&cPath=3_159&products_id=45958
p547
asVCellini
p548
(lp549
Vhttp://www.dbestwatches.com/index.php?main_page=product_info&cPath=3_238&products_id=42536
p550
aVhttp://www.dbestwatches.com/index.php?main_page=product_info&cPath=3_238&products_id=45843
p551
aVhttp://www.dbestwatches.com/index.php?main_page=product_info&cPath=3_238&products_id=44231
p552
aVhttp://www.dbestwatches.com/index.php?main_page=product_info&cPath=3_238&products_id=45846
p553
aVhttp://www.dbestwatches.com/index.php?main_page=product_info&cPath=3_238&products_id=45079
p554
aVhttp://www.dbestwatches.com/index.php?main_page=product_info&cPath=3_238&products_id=45845
p555
aVhttp://www.dbestwatches.com/index.php?main_page=product_info&cPath=3_238&products_id=45844
p556
aVhttp://www.dbestwatches.com/index.php?main_page=product_info&cPath=3_238&products_id=44374
p557
aVhttp://www.dbestwatches.com/index.php?main_page=product_info&cPath=3_238&products_id=43402
p558
asVOyster Perpetual Date
p559
(lp560
Vhttp://www.dbestwatches.com/index.php?main_page=product_info&cPath=3_61&products_id=45579
p561
aVhttp://www.dbestwatches.com/index.php?main_page=product_info&cPath=3_61&products_id=44716
p562
aVhttp://www.dbestwatches.com/index.php?main_page=product_info&cPath=3_61&products_id=44294
p563
aVhttp://www.dbestwatches.com/index.php?main_page=product_info&cPath=3_61&products_id=43661
p564
aVhttp://www.dbestwatches.com/index.php?main_page=product_info&cPath=3_61&products_id=43721
p565
aVhttp://www.dbestwatches.com/index.php?main_page=product_info&cPath=3_61&products_id=43953
p566
aVhttp://www.dbestwatches.com/index.php?main_page=product_info&cPath=3_61&products_id=44702
p567
aVhttp://www.dbestwatches.com/index.php?main_page=product_info&cPath=3_61&products_id=45170
p568
aVhttp://www.dbestwatches.com/index.php?main_page=product_info&cPath=3_61&products_id=45851
p569
aVhttp://www.dbestwatches.com/index.php?main_page=product_info&cPath=3_61&products_id=40914
p570
aVhttp://www.dbestwatches.com/index.php?main_page=product_info&cPath=3_61&products_id=39539
p571
aVhttp://www.dbestwatches.com/index.php?main_page=product_info&cPath=3_61&products_id=44781
p572
aVhttp://www.dbestwatches.com/index.php?main_page=product_info&cPath=3_61&products_id=44317
p573
aVhttp://www.dbestwatches.com/index.php?main_page=product_info&cPath=3_61&products_id=44232
p574
aVhttp://www.dbestwatches.com/index.php?main_page=product_info&cPath=3_61&products_id=44568
p575
aVhttp://www.dbestwatches.com/index.php?main_page=product_info&cPath=3_61&products_id=45849
p576
aVhttp://www.dbestwatches.com/index.php?main_page=product_info&cPath=3_61&products_id=45202
p577
aVhttp://www.dbestwatches.com/index.php?main_page=product_info&cPath=3_61&products_id=38581
p578
aVhttp://www.dbestwatches.com/index.php?main_page=product_info&cPath=3_61&products_id=43017
p579
aVhttp://www.dbestwatches.com/index.php?main_page=product_info&cPath=3_61&products_id=44345
p580
aVhttp://www.dbestwatches.com/index.php?main_page=product_info&cPath=3_61&products_id=45554
p581
aVhttp://www.dbestwatches.com/index.php?main_page=product_info&cPath=3_61&products_id=44578
p582
aVhttp://www.dbestwatches.com/index.php?main_page=product_info&cPath=3_61&products_id=43952
p583
aVhttp://www.dbestwatches.com/index.php?main_page=product_info&cPath=3_61&products_id=33095
p584
aVhttp://www.dbestwatches.com/index.php?main_page=product_info&cPath=3_61&products_id=44971
p585
aVhttp://www.dbestwatches.com/index.php?main_page=product_info&cPath=3_61&products_id=41331
p586
aVhttp://www.dbestwatches.com/index.php?main_page=product_info&cPath=3_61&products_id=40263
p587
aVhttp://www.dbestwatches.com/index.php?main_page=product_info&cPath=3_61&products_id=43796
p588
aVhttp://www.dbestwatches.com/index.php?main_page=product_info&cPath=3_61&products_id=45848
p589
aVhttp://www.dbestwatches.com/index.php?main_page=product_info&cPath=3_61&products_id=44520
p590
aVhttp://www.dbestwatches.com/index.php?main_page=product_info&cPath=3_61&products_id=42612
p591
aVhttp://www.dbestwatches.com/index.php?main_page=product_info&cPath=3_61&products_id=43099
p592
aVhttp://www.dbestwatches.com/index.php?main_page=product_info&cPath=3_61&products_id=43183
p593
aVhttp://www.dbestwatches.com/index.php?main_page=product_info&cPath=3_61&products_id=45014
p594
aVhttp://www.dbestwatches.com/index.php?main_page=product_info&cPath=3_61&products_id=40524
p595
aVhttp://www.dbestwatches.com/index.php?main_page=product_info&cPath=3_61&products_id=44715
p596
aVhttp://www.dbestwatches.com/index.php?main_page=product_info&cPath=3_61&products_id=43776
p597
aVhttp://www.dbestwatches.com/index.php?main_page=product_info&cPath=3_61&products_id=45234
p598
aVhttp://www.dbestwatches.com/index.php?main_page=product_info&cPath=3_61&products_id=42767
p599
aVhttp://www.dbestwatches.com/index.php?main_page=product_info&cPath=3_61&products_id=43327
p600
aVhttp://www.dbestwatches.com/index.php?main_page=product_info&cPath=3_61&products_id=44352
p601
aVhttp://www.dbestwatches.com/index.php?main_page=product_info&cPath=3_61&products_id=43247
p602
aVhttp://www.dbestwatches.com/index.php?main_page=product_info&cPath=3_61&products_id=43401
p603
aVhttp://www.dbestwatches.com/index.php?main_page=product_info&cPath=3_61&products_id=45114
p604
aVhttp://www.dbestwatches.com/index.php?main_page=product_info&cPath=3_61&products_id=40465
p605
aVhttp://www.dbestwatches.com/index.php?main_page=product_info&cPath=3_61&products_id=45850
p606
aVhttp://www.dbestwatches.com/index.php?main_page=product_info&cPath=3_61&products_id=40662
p607
aVhttp://www.dbestwatches.com/index.php?main_page=product_info&cPath=3_61&products_id=44317
p608
aVhttp://www.dbestwatches.com/index.php?main_page=product_info&cPath=3_61&products_id=44232
p609
aVhttp://www.dbestwatches.com/index.php?main_page=product_info&cPath=3_61&products_id=44568
p610
aVhttp://www.dbestwatches.com/index.php?main_page=product_info&cPath=3_61&products_id=45849
p611
aVhttp://www.dbestwatches.com/index.php?main_page=product_info&cPath=3_61&products_id=45202
p612
aVhttp://www.dbestwatches.com/index.php?main_page=product_info&cPath=3_61&products_id=38581
p613
aVhttp://www.dbestwatches.com/index.php?main_page=product_info&cPath=3_61&products_id=43017
p614
aVhttp://www.dbestwatches.com/index.php?main_page=product_info&cPath=3_61&products_id=44345
p615
aVhttp://www.dbestwatches.com/index.php?main_page=product_info&cPath=3_61&products_id=45554
p616
aVhttp://www.dbestwatches.com/index.php?main_page=product_info&cPath=3_61&products_id=44578
p617
aVhttp://www.dbestwatches.com/index.php?main_page=product_info&cPath=3_61&products_id=43952
p618
aVhttp://www.dbestwatches.com/index.php?main_page=product_info&cPath=3_61&products_id=33095
p619
assVPatek Philippe
p620
(dp621
VComplicated
p622
(lp623
Vhttp://www.dbestwatches.com/index.php?main_page=product_info&cPath=125_258&products_id=44678
p624
aVhttp://www.dbestwatches.com/index.php?main_page=product_info&cPath=125_258&products_id=45942
p625
asVCalatrava
p626
(lp627
Vhttp://www.dbestwatches.com/index.php?main_page=product_info&cPath=125_305&products_id=43071
p628
aVhttp://www.dbestwatches.com/index.php?main_page=product_info&cPath=125_305&products_id=42777
p629
aVhttp://www.dbestwatches.com/index.php?main_page=product_info&cPath=125_305&products_id=45867
p630
aVhttp://www.dbestwatches.com/index.php?main_page=product_info&cPath=125_305&products_id=43120
p631
aVhttp://www.dbestwatches.com/index.php?main_page=product_info&cPath=125_305&products_id=44217
p632
aVhttp://www.dbestwatches.com/index.php?main_page=product_info&cPath=125_305&products_id=42778
p633
aVhttp://www.dbestwatches.com/index.php?main_page=product_info&cPath=125_305&products_id=42329
p634
aVhttp://www.dbestwatches.com/index.php?main_page=product_info&cPath=125_305&products_id=41854
p635
asVNautilus
p636
(lp637
Vhttp://www.dbestwatches.com/index.php?main_page=product_info&cPath=125_284&products_id=41312
p638
aVhttp://www.dbestwatches.com/index.php?main_page=product_info&cPath=125_284&products_id=45044
p639
aVhttp://www.dbestwatches.com/index.php?main_page=product_info&cPath=125_284&products_id=43525
p640
aVhttp://www.dbestwatches.com/index.php?main_page=product_info&cPath=125_284&products_id=41628
p641
aVhttp://www.dbestwatches.com/index.php?main_page=product_info&cPath=125_284&products_id=43520
p642
asVTwenty-4
p643
(lp644
Vhttp://www.dbestwatches.com/index.php?main_page=product_info&cPath=125_366&products_id=45621
p645
aVhttp://www.dbestwatches.com/index.php?main_page=product_info&cPath=125_366&products_id=43524
p646
aVhttp://www.dbestwatches.com/index.php?main_page=product_info&cPath=125_366&products_id=43535
p647
asVGondolo
p648
(lp649
Vhttp://www.dbestwatches.com/index.php?main_page=product_info&cPath=125_126&products_id=36824
p650
aVhttp://www.dbestwatches.com/index.php?main_page=product_info&cPath=125_126&products_id=43551
p651
assVTag Heuer
p652
(dp653
VAquaracer
p654
(lp655
Vhttp://www.dbestwatches.com/index.php?main_page=product_info&cPath=15_155&products_id=42618
p656
aVhttp://www.dbestwatches.com/index.php?main_page=product_info&cPath=15_155&products_id=45048
p657
aVhttp://www.dbestwatches.com/index.php?main_page=product_info&cPath=15_155&products_id=45368
p658
aVhttp://www.dbestwatches.com/index.php?main_page=product_info&cPath=15_155&products_id=45500
p659
aVhttp://www.dbestwatches.com/index.php?main_page=product_info&cPath=15_155&products_id=45367
p660
aVhttp://www.dbestwatches.com/index.php?main_page=product_info&cPath=15_155&products_id=44525
p661
aVhttp://www.dbestwatches.com/index.php?main_page=product_info&cPath=15_155&products_id=40544
p662
aVhttp://www.dbestwatches.com/index.php?main_page=product_info&cPath=15_155&products_id=42645
p663
aVhttp://www.dbestwatches.com/index.php?main_page=product_info&cPath=15_155&products_id=44759
p664
aVhttp://www.dbestwatches.com/index.php?main_page=product_info&cPath=15_155&products_id=45529
p665
aVhttp://www.dbestwatches.com/index.php?main_page=product_info&cPath=15_155&products_id=39875
p666
asVSLR
p667
(lp668
Vhttp://www.dbestwatches.com/index.php?main_page=product_info&cPath=15_165&products_id=38397
p669
aVhttp://www.dbestwatches.com/index.php?main_page=product_info&cPath=15_165&products_id=45943
p670
asVGrand Carrera
p671
(lp672
Vhttp://www.dbestwatches.com/index.php?main_page=product_info&cPath=15_112&products_id=45704
p673
aVhttp://www.dbestwatches.com/index.php?main_page=product_info&cPath=15_112&products_id=45313
p674
aVhttp://www.dbestwatches.com/index.php?main_page=product_info&cPath=15_112&products_id=41460
p675
aVhttp://www.dbestwatches.com/index.php?main_page=product_info&cPath=15_112&products_id=44933
p676
aVhttp://www.dbestwatches.com/index.php?main_page=product_info&cPath=15_112&products_id=43154
p677
aVhttp://www.dbestwatches.com/index.php?main_page=product_info&cPath=15_112&products_id=42707
p678
aVhttp://www.dbestwatches.com/index.php?main_page=product_info&cPath=15_112&products_id=42964
p679
aVhttp://www.dbestwatches.com/index.php?main_page=product_info&cPath=15_112&products_id=41329
p680
aVhttp://www.dbestwatches.com/index.php?main_page=product_info&cPath=15_112&products_id=36281
p681
aVhttp://www.dbestwatches.com/index.php?main_page=product_info&cPath=15_112&products_id=38930
p682
asVLink
p683
(lp684
Vhttp://www.dbestwatches.com/index.php?main_page=product_info&cPath=15_16&products_id=44417
p685
aVhttp://www.dbestwatches.com/index.php?main_page=product_info&cPath=15_16&products_id=44128
p686
aVhttp://www.dbestwatches.com/index.php?main_page=product_info&cPath=15_16&products_id=42689
p687
aVhttp://www.dbestwatches.com/index.php?main_page=product_info&cPath=15_16&products_id=42963
p688
aVhttp://www.dbestwatches.com/index.php?main_page=product_info&cPath=15_16&products_id=42346
p689
aVhttp://www.dbestwatches.com/index.php?main_page=product_info&cPath=15_16&products_id=44124
p690
aVhttp://www.dbestwatches.com/index.php?main_page=product_info&cPath=15_16&products_id=39387
p691
aVhttp://www.dbestwatches.com/index.php?main_page=product_info&cPath=15_16&products_id=45524
p692
asVCarrera
p693
(lp694
Vhttp://www.dbestwatches.com/index.php?main_page=product_info&cPath=15_31&products_id=44681
p695
aVhttp://www.dbestwatches.com/index.php?main_page=product_info&cPath=15_31&products_id=44201
p696
aVhttp://www.dbestwatches.com/index.php?main_page=product_info&cPath=15_31&products_id=44071
p697
aVhttp://www.dbestwatches.com/index.php?main_page=product_info&cPath=15_31&products_id=43132
p698
aVhttp://www.dbestwatches.com/index.php?main_page=product_info&cPath=15_31&products_id=44871
p699
aVhttp://www.dbestwatches.com/index.php?main_page=product_info&cPath=15_31&products_id=44925
p700
aVhttp://www.dbestwatches.com/index.php?main_page=product_info&cPath=15_31&products_id=44126
p701
aVhttp://www.dbestwatches.com/index.php?main_page=product_info&cPath=15_31&products_id=44510
p702
aVhttp://www.dbestwatches.com/index.php?main_page=product_info&cPath=15_31&products_id=39611
p703
aVhttp://www.dbestwatches.com/index.php?main_page=product_info&cPath=15_31&products_id=42321
p704
aVhttp://www.dbestwatches.com/index.php?main_page=product_info&cPath=15_31&products_id=43242
p705
aVhttp://www.dbestwatches.com/index.php?main_page=product_info&cPath=15_31&products_id=38921
p706
aVhttp://www.dbestwatches.com/index.php?main_page=product_info&cPath=15_31&products_id=40826
p707
aVhttp://www.dbestwatches.com/index.php?main_page=product_info&cPath=15_31&products_id=40709
p708
aVhttp://www.dbestwatches.com/index.php?main_page=product_info&cPath=15_31&products_id=45312
p709
aVhttp://www.dbestwatches.com/index.php?main_page=product_info&cPath=15_31&products_id=41343
p710
aVhttp://www.dbestwatches.com/index.php?main_page=product_info&cPath=15_31&products_id=45340
p711
aVhttp://www.dbestwatches.com/index.php?main_page=product_info&cPath=15_31&products_id=45288
p712
aVhttp://www.dbestwatches.com/index.php?main_page=product_info&cPath=15_31&products_id=43257
p713
aVhttp://www.dbestwatches.com/index.php?main_page=product_info&cPath=15_31&products_id=45574
p714
aVhttp://www.dbestwatches.com/index.php?main_page=product_info&cPath=15_31&products_id=44219
p715
aVhttp://www.dbestwatches.com/index.php?main_page=product_info&cPath=15_31&products_id=41161
p716
aVhttp://www.dbestwatches.com/index.php?main_page=product_info&cPath=15_31&products_id=45123
p717
aVhttp://www.dbestwatches.com/index.php?main_page=product_info&cPath=15_31&products_id=42849
p718
aVhttp://www.dbestwatches.com/index.php?main_page=product_info&cPath=15_31&products_id=43131
p719
aVhttp://www.dbestwatches.com/index.php?main_page=product_info&cPath=15_31&products_id=45542
p720
aVhttp://www.dbestwatches.com/index.php?main_page=product_info&cPath=15_31&products_id=29914
p721
aVhttp://www.dbestwatches.com/index.php?main_page=product_info&cPath=15_31&products_id=39144
p722
aVhttp://www.dbestwatches.com/index.php?main_page=product_info&cPath=15_31&products_id=40826
p723
aVhttp://www.dbestwatches.com/index.php?main_page=product_info&cPath=15_31&products_id=40709
p724
aVhttp://www.dbestwatches.com/index.php?main_page=product_info&cPath=15_31&products_id=45312
p725
aVhttp://www.dbestwatches.com/index.php?main_page=product_info&cPath=15_31&products_id=41343
p726
aVhttp://www.dbestwatches.com/index.php?main_page=product_info&cPath=15_31&products_id=45340
p727
aVhttp://www.dbestwatches.com/index.php?main_page=product_info&cPath=15_31&products_id=45288
p728
aVhttp://www.dbestwatches.com/index.php?main_page=product_info&cPath=15_31&products_id=43257
p729
aVhttp://www.dbestwatches.com/index.php?main_page=product_info&cPath=15_31&products_id=45574
p730
aVhttp://www.dbestwatches.com/index.php?main_page=product_info&cPath=15_31&products_id=44219
p731
aVhttp://www.dbestwatches.com/index.php?main_page=product_info&cPath=15_31&products_id=41161
p732
aVhttp://www.dbestwatches.com/index.php?main_page=product_info&cPath=15_31&products_id=45123
p733
aVhttp://www.dbestwatches.com/index.php?main_page=product_info&cPath=15_31&products_id=42849
p734
asVFormula 1
p735
(lp736
Vhttp://www.dbestwatches.com/index.php?main_page=product_info&cPath=15_140&products_id=45605
p737
aVhttp://www.dbestwatches.com/index.php?main_page=product_info&cPath=15_140&products_id=45540
p738
aVhttp://www.dbestwatches.com/index.php?main_page=product_info&cPath=15_140&products_id=45489
p739
aVhttp://www.dbestwatches.com/index.php?main_page=product_info&cPath=15_140&products_id=45522
p740
aVhttp://www.dbestwatches.com/index.php?main_page=product_info&cPath=15_140&products_id=37646
p741
aVhttp://www.dbestwatches.com/index.php?main_page=product_info&cPath=15_140&products_id=45599
p742
asVMonaco
p743
(lp744
Vhttp://www.dbestwatches.com/index.php?main_page=product_info&cPath=15_30&products_id=40478
p745
aVhttp://www.dbestwatches.com/index.php?main_page=product_info&cPath=15_30&products_id=41293
p746
aVhttp://www.dbestwatches.com/index.php?main_page=product_info&cPath=15_30&products_id=44969
p747
aVhttp://www.dbestwatches.com/index.php?main_page=product_info&cPath=15_30&products_id=42909
p748
aVhttp://www.dbestwatches.com/index.php?main_page=product_info&cPath=15_30&products_id=43135
p749
aVhttp://www.dbestwatches.com/index.php?main_page=product_info&cPath=15_30&products_id=40469
p750
aVhttp://www.dbestwatches.com/index.php?main_page=product_info&cPath=15_30&products_id=42130
p751
assVWatch Tables
p752
(dp753
VRolex Tables
p754
Vhttp://www.dbestwatches.com/index.php?main_page=product_info&cPath=469&products_id=45980
p755
sVOmega Tables
p756
Vhttp://www.dbestwatches.com/index.php?main_page=product_info&cPath=469&products_id=45981
p757
ssVCartier
p758
(dp759
VSantos
p760
(lp761
Vhttp://www.dbestwatches.com/index.php?main_page=product_info&cPath=13_306&products_id=42315
p762
aVhttp://www.dbestwatches.com/index.php?main_page=product_info&cPath=13_306&products_id=43235
p763
aVhttp://www.dbestwatches.com/index.php?main_page=product_info&cPath=13_306&products_id=43579
p764
aVhttp://www.dbestwatches.com/index.php?main_page=product_info&cPath=13_306&products_id=43300
p765
aVhttp://www.dbestwatches.com/index.php?main_page=product_info&cPath=13_306&products_id=41856
p766
aVhttp://www.dbestwatches.com/index.php?main_page=product_info&cPath=13_306&products_id=45940
p767
aVhttp://www.dbestwatches.com/index.php?main_page=product_info&cPath=13_306&products_id=44287
p768
aVhttp://www.dbestwatches.com/index.php?main_page=product_info&cPath=13_306&products_id=42518
p769
aVhttp://www.dbestwatches.com/index.php?main_page=product_info&cPath=13_306&products_id=43484
p770
aVhttp://www.dbestwatches.com/index.php?main_page=product_info&cPath=13_306&products_id=41116
p771
aVhttp://www.dbestwatches.com/index.php?main_page=product_info&cPath=13_306&products_id=42747
p772
aVhttp://www.dbestwatches.com/index.php?main_page=product_info&cPath=13_306&products_id=44106
p773
asVBallon Bleu
p774
(lp775
Vhttp://www.dbestwatches.com/index.php?main_page=product_info&cPath=13_143&products_id=45467
p776
aVhttp://www.dbestwatches.com/index.php?main_page=product_info&cPath=13_143&products_id=40264
p777
aVhttp://www.dbestwatches.com/index.php?main_page=product_info&cPath=13_143&products_id=44886
p778
aVhttp://www.dbestwatches.com/index.php?main_page=product_info&cPath=13_143&products_id=45185
p779
aVhttp://www.dbestwatches.com/index.php?main_page=product_info&cPath=13_143&products_id=44212
p780
aVhttp://www.dbestwatches.com/index.php?main_page=product_info&cPath=13_143&products_id=41730
p781
aVhttp://www.dbestwatches.com/index.php?main_page=product_info&cPath=13_143&products_id=45969
p782
aVhttp://www.dbestwatches.com/index.php?main_page=product_info&cPath=13_143&products_id=45189
p783
aVhttp://www.dbestwatches.com/index.php?main_page=product_info&cPath=13_143&products_id=42646
p784
aVhttp://www.dbestwatches.com/index.php?main_page=product_info&cPath=13_143&products_id=45188
p785
aVhttp://www.dbestwatches.com/index.php?main_page=product_info&cPath=13_143&products_id=37797
p786
aVhttp://www.dbestwatches.com/index.php?main_page=product_info&cPath=13_143&products_id=42665
p787
aVhttp://www.dbestwatches.com/index.php?main_page=product_info&cPath=13_143&products_id=45964
p788
aVhttp://www.dbestwatches.com/index.php?main_page=product_info&cPath=13_143&products_id=42774
p789
aVhttp://www.dbestwatches.com/index.php?main_page=product_info&cPath=13_143&products_id=45966
p790
aVhttp://www.dbestwatches.com/index.php?main_page=product_info&cPath=13_143&products_id=45009
p791
aVhttp://www.dbestwatches.com/index.php?main_page=product_info&cPath=13_143&products_id=45971
p792
aVhttp://www.dbestwatches.com/index.php?main_page=product_info&cPath=13_143&products_id=42103
p793
aVhttp://www.dbestwatches.com/index.php?main_page=product_info&cPath=13_143&products_id=45961
p794
aVhttp://www.dbestwatches.com/index.php?main_page=product_info&cPath=13_143&products_id=45190
p795
aVhttp://www.dbestwatches.com/index.php?main_page=product_info&cPath=13_143&products_id=41787
p796
aVhttp://www.dbestwatches.com/index.php?main_page=product_info&cPath=13_143&products_id=45965
p797
aVhttp://www.dbestwatches.com/index.php?main_page=product_info&cPath=13_143&products_id=45967
p798
aVhttp://www.dbestwatches.com/index.php?main_page=product_info&cPath=13_143&products_id=42670
p799
aVhttp://www.dbestwatches.com/index.php?main_page=product_info&cPath=13_143&products_id=42786
p800
aVhttp://www.dbestwatches.com/index.php?main_page=product_info&cPath=13_143&products_id=45968
p801
aVhttp://www.dbestwatches.com/index.php?main_page=product_info&cPath=13_143&products_id=45970
p802
aVhttp://www.dbestwatches.com/index.php?main_page=product_info&cPath=13_143&products_id=45964
p803
aVhttp://www.dbestwatches.com/index.php?main_page=product_info&cPath=13_143&products_id=42774
p804
aVhttp://www.dbestwatches.com/index.php?main_page=product_info&cPath=13_143&products_id=45966
p805
aVhttp://www.dbestwatches.com/index.php?main_page=product_info&cPath=13_143&products_id=45009
p806
aVhttp://www.dbestwatches.com/index.php?main_page=product_info&cPath=13_143&products_id=45971
p807
aVhttp://www.dbestwatches.com/index.php?main_page=product_info&cPath=13_143&products_id=42103
p808
aVhttp://www.dbestwatches.com/index.php?main_page=product_info&cPath=13_143&products_id=45961
p809
aVhttp://www.dbestwatches.com/index.php?main_page=product_info&cPath=13_143&products_id=45190
p810
aVhttp://www.dbestwatches.com/index.php?main_page=product_info&cPath=13_143&products_id=41787
p811
aVhttp://www.dbestwatches.com/index.php?main_page=product_info&cPath=13_143&products_id=45965
p812
aVhttp://www.dbestwatches.com/index.php?main_page=product_info&cPath=13_143&products_id=45967
p813
aVhttp://www.dbestwatches.com/index.php?main_page=product_info&cPath=13_143&products_id=42670
p814
asVTank
p815
(lp816
Vhttp://www.dbestwatches.com/index.php?main_page=product_info&cPath=13_79&products_id=44872
p817
aVhttp://www.dbestwatches.com/index.php?main_page=product_info&cPath=13_79&products_id=40251
p818
aVhttp://www.dbestwatches.com/index.php?main_page=product_info&cPath=13_79&products_id=42196
p819
aVhttp://www.dbestwatches.com/index.php?main_page=product_info&cPath=13_79&products_id=45010
p820
aVhttp://www.dbestwatches.com/index.php?main_page=product_info&cPath=13_79&products_id=43233
p821
aVhttp://www.dbestwatches.com/index.php?main_page=product_info&cPath=13_79&products_id=39938
p822
aVhttp://www.dbestwatches.com/index.php?main_page=product_info&cPath=13_79&products_id=39604
p823
aVhttp://www.dbestwatches.com/index.php?main_page=product_info&cPath=13_79&products_id=41866
p824
aVhttp://www.dbestwatches.com/index.php?main_page=product_info&cPath=13_79&products_id=42993
p825
aVhttp://www.dbestwatches.com/index.php?main_page=product_info&cPath=13_79&products_id=42434
p826
aVhttp://www.dbestwatches.com/index.php?main_page=product_info&cPath=13_79&products_id=27601
p827
aVhttp://www.dbestwatches.com/index.php?main_page=product_info&cPath=13_79&products_id=41844
p828
aVhttp://www.dbestwatches.com/index.php?main_page=product_info&cPath=13_79&products_id=43405
p829
aVhttp://www.dbestwatches.com/index.php?main_page=product_info&cPath=13_79&products_id=35724
p830
aVhttp://www.dbestwatches.com/index.php?main_page=product_info&cPath=13_79&products_id=44078
p831
aVhttp://www.dbestwatches.com/index.php?main_page=product_info&cPath=13_79&products_id=34260
p832
aVhttp://www.dbestwatches.com/index.php?main_page=product_info&cPath=13_79&products_id=45462
p833
aVhttp://www.dbestwatches.com/index.php?main_page=product_info&cPath=13_79&products_id=44164
p834
aVhttp://www.dbestwatches.com/index.php?main_page=product_info&cPath=13_79&products_id=43405
p835
aVhttp://www.dbestwatches.com/index.php?main_page=product_info&cPath=13_79&products_id=35724
p836
aVhttp://www.dbestwatches.com/index.php?main_page=product_info&cPath=13_79&products_id=44078
p837
aVhttp://www.dbestwatches.com/index.php?main_page=product_info&cPath=13_79&products_id=34260
p838
aVhttp://www.dbestwatches.com/index.php?main_page=product_info&cPath=13_79&products_id=45462
p839
aVhttp://www.dbestwatches.com/index.php?main_page=product_info&cPath=13_79&products_id=44164
p840
asVPanthere
p841
(lp842
S'http://www.dbestwatches.com/index.php?main_page=product_info&cPath=13_177&products_id=44953'
p843
asVCalibre de Cartier
p844
(lp845
Vhttp://www.dbestwatches.com/index.php?main_page=product_info&cPath=13_331&products_id=42658
p846
aVhttp://www.dbestwatches.com/index.php?main_page=product_info&cPath=13_331&products_id=42655
p847
aVhttp://www.dbestwatches.com/index.php?main_page=product_info&cPath=13_331&products_id=45309
p848
assVWatch Boxes
p849
(dp850
VOmega Watch Case
p851
(lp852
Vhttp://www.dbestwatches.com/index.php?main_page=product_info&cPath=468&products_id=45973
p853
asVPanerai Watch Case
p854
(lp855
Vhttp://www.dbestwatches.com/index.php?main_page=product_info&cPath=468&products_id=45979
p856
asVBreitling Watch Case
p857
(lp858
Vhttp://www.dbestwatches.com/index.php?main_page=product_info&cPath=468&products_id=45974
p859
asVTag Heuer Watch Case
p860
(lp861
Vhttp://www.dbestwatches.com/index.php?main_page=product_info&cPath=468&products_id=45976
p862
asVCartier Watch Case
p863
(lp864
Vhttp://www.dbestwatches.com/index.php?main_page=product_info&cPath=468&products_id=45978
p865
asVPatek Philippe Watch Case
p866
(lp867
Vhttp://www.dbestwatches.com/index.php?main_page=product_info&cPath=468&products_id=45977
p868
asVRolex Watch Case
p869
(lp870
Vhttp://www.dbestwatches.com/index.php?main_page=product_info&cPath=468&products_id=45972
p871
assVVacheron Constantin
p872
(dp873
VOverseas
p874
(lp875
S'http://www.dbestwatches.com/index.php?main_page=product_info&cPath=194_439&products_id=45141'
p876
asVPhidias
p877
(lp878
Vhttp://www.dbestwatches.com/index.php?main_page=product_info&cPath=194_195&products_id=39132
p879
aVhttp://www.dbestwatches.com/index.php?main_page=product_info&cPath=194_195&products_id=43322
p880
asVPatrimony
p881
(lp882
Vhttp://www.dbestwatches.com/index.php?main_page=product_info&cPath=194_367&products_id=45217
p883
aVhttp://www.dbestwatches.com/index.php?main_page=product_info&cPath=194_367&products_id=43552
p884
assVFranck Muller
p885
(dp886
VKing Conquistador
p887
(lp888
Vhttp://www.dbestwatches.com/index.php?main_page=product_info&cPath=56_136&products_id=37323
p889
aVhttp://www.dbestwatches.com/index.php?main_page=product_info&cPath=56_136&products_id=44004
p890
aVhttp://www.dbestwatches.com/index.php?main_page=product_info&cPath=56_136&products_id=42178
p891
asVCasablanca
p892
(lp893
Vhttp://www.dbestwatches.com/index.php?main_page=product_info&cPath=56_57&products_id=45089
p894
aVhttp://www.dbestwatches.com/index.php?main_page=product_info&cPath=56_57&products_id=44003
p895
asVMaster Square
p896
(lp897
S'http://www.dbestwatches.com/index.php?main_page=product_info&cPath=56_167&products_id=38448'
p898
asVLong Island
p899
(lp900
Vhttp://www.dbestwatches.com/index.php?main_page=product_info&cPath=56_113&products_id=38210
p901
aVhttp://www.dbestwatches.com/index.php?main_page=product_info&cPath=56_113&products_id=36327
p902
asVSunset
p903
(lp904
S'http://www.dbestwatches.com/index.php?main_page=product_info&cPath=56_215&products_id=39600'
p905
asVConquistador
p906
(lp907
Vhttp://www.dbestwatches.com/index.php?main_page=product_info&cPath=56_60&products_id=32814
p908
aVhttp://www.dbestwatches.com/index.php?main_page=product_info&cPath=56_60&products_id=43845
p909
aVhttp://www.dbestwatches.com/index.php?main_page=product_info&cPath=56_60&products_id=44814
p910
aVhttp://www.dbestwatches.com/index.php?main_page=product_info&cPath=56_60&products_id=44639
p911
aVhttp://www.dbestwatches.com/index.php?main_page=product_info&cPath=56_60&products_id=40332
p912
asVMariner
p913
(lp914
S'http://www.dbestwatches.com/index.php?main_page=product_info&cPath=56_308&products_id=41916'
p915
asVCintre Curvex
p916
(lp917
Vhttp://www.dbestwatches.com/index.php?main_page=product_info&cPath=56_128&products_id=36875
p918
aVhttp://www.dbestwatches.com/index.php?main_page=product_info&cPath=56_128&products_id=42515
p919
assVOmega
p920
(dp921
VDe Ville
p922
(lp923
Vhttp://www.dbestwatches.com/index.php?main_page=product_info&cPath=11_12&products_id=39624
p924
aVhttp://www.dbestwatches.com/index.php?main_page=product_info&cPath=11_12&products_id=44403
p925
aVhttp://www.dbestwatches.com/index.php?main_page=product_info&cPath=11_12&products_id=43888
p926
aVhttp://www.dbestwatches.com/index.php?main_page=product_info&cPath=11_12&products_id=45872
p927
aVhttp://www.dbestwatches.com/index.php?main_page=product_info&cPath=11_12&products_id=45874
p928
aVhttp://www.dbestwatches.com/index.php?main_page=product_info&cPath=11_12&products_id=45878
p929
aVhttp://www.dbestwatches.com/index.php?main_page=product_info&cPath=11_12&products_id=27669
p930
aVhttp://www.dbestwatches.com/index.php?main_page=product_info&cPath=11_12&products_id=39495
p931
aVhttp://www.dbestwatches.com/index.php?main_page=product_info&cPath=11_12&products_id=45876
p932
aVhttp://www.dbestwatches.com/index.php?main_page=product_info&cPath=11_12&products_id=45875
p933
aVhttp://www.dbestwatches.com/index.php?main_page=product_info&cPath=11_12&products_id=39772
p934
aVhttp://www.dbestwatches.com/index.php?main_page=product_info&cPath=11_12&products_id=45871
p935
aVhttp://www.dbestwatches.com/index.php?main_page=product_info&cPath=11_12&products_id=45877
p936
aVhttp://www.dbestwatches.com/index.php?main_page=product_info&cPath=11_12&products_id=37366
p937
aVhttp://www.dbestwatches.com/index.php?main_page=product_info&cPath=11_12&products_id=39121
p938
aVhttp://www.dbestwatches.com/index.php?main_page=product_info&cPath=11_12&products_id=45873
p939
aVhttp://www.dbestwatches.com/index.php?main_page=product_info&cPath=11_12&products_id=43403
p940
aVhttp://www.dbestwatches.com/index.php?main_page=product_info&cPath=11_12&products_id=45886
p941
aVhttp://www.dbestwatches.com/index.php?main_page=product_info&cPath=11_12&products_id=45894
p942
aVhttp://www.dbestwatches.com/index.php?main_page=product_info&cPath=11_12&products_id=45892
p943
aVhttp://www.dbestwatches.com/index.php?main_page=product_info&cPath=11_12&products_id=41453
p944
aVhttp://www.dbestwatches.com/index.php?main_page=product_info&cPath=11_12&products_id=45476
p945
aVhttp://www.dbestwatches.com/index.php?main_page=product_info&cPath=11_12&products_id=44080
p946
aVhttp://www.dbestwatches.com/index.php?main_page=product_info&cPath=11_12&products_id=39504
p947
aVhttp://www.dbestwatches.com/index.php?main_page=product_info&cPath=11_12&products_id=45899
p948
aVhttp://www.dbestwatches.com/index.php?main_page=product_info&cPath=11_12&products_id=45883
p949
aVhttp://www.dbestwatches.com/index.php?main_page=product_info&cPath=11_12&products_id=45464
p950
aVhttp://www.dbestwatches.com/index.php?main_page=product_info&cPath=11_12&products_id=45898
p951
aVhttp://www.dbestwatches.com/index.php?main_page=product_info&cPath=11_12&products_id=44192
p952
aVhttp://www.dbestwatches.com/index.php?main_page=product_info&cPath=11_12&products_id=45887
p953
aVhttp://www.dbestwatches.com/index.php?main_page=product_info&cPath=11_12&products_id=45870
p954
aVhttp://www.dbestwatches.com/index.php?main_page=product_info&cPath=11_12&products_id=45879
p955
aVhttp://www.dbestwatches.com/index.php?main_page=product_info&cPath=11_12&products_id=45888
p956
aVhttp://www.dbestwatches.com/index.php?main_page=product_info&cPath=11_12&products_id=45880
p957
aVhttp://www.dbestwatches.com/index.php?main_page=product_info&cPath=11_12&products_id=45895
p958
aVhttp://www.dbestwatches.com/index.php?main_page=product_info&cPath=11_12&products_id=45900
p959
aVhttp://www.dbestwatches.com/index.php?main_page=product_info&cPath=11_12&products_id=45901
p960
aVhttp://www.dbestwatches.com/index.php?main_page=product_info&cPath=11_12&products_id=39118
p961
aVhttp://www.dbestwatches.com/index.php?main_page=product_info&cPath=11_12&products_id=39828
p962
aVhttp://www.dbestwatches.com/index.php?main_page=product_info&cPath=11_12&products_id=45885
p963
aVhttp://www.dbestwatches.com/index.php?main_page=product_info&cPath=11_12&products_id=45884
p964
aVhttp://www.dbestwatches.com/index.php?main_page=product_info&cPath=11_12&products_id=44193
p965
aVhttp://www.dbestwatches.com/index.php?main_page=product_info&cPath=11_12&products_id=45889
p966
aVhttp://www.dbestwatches.com/index.php?main_page=product_info&cPath=11_12&products_id=45897
p967
aVhttp://www.dbestwatches.com/index.php?main_page=product_info&cPath=11_12&products_id=45877
p968
aVhttp://www.dbestwatches.com/index.php?main_page=product_info&cPath=11_12&products_id=37366
p969
aVhttp://www.dbestwatches.com/index.php?main_page=product_info&cPath=11_12&products_id=39121
p970
aVhttp://www.dbestwatches.com/index.php?main_page=product_info&cPath=11_12&products_id=45873
p971
aVhttp://www.dbestwatches.com/index.php?main_page=product_info&cPath=11_12&products_id=43403
p972
aVhttp://www.dbestwatches.com/index.php?main_page=product_info&cPath=11_12&products_id=45886
p973
aVhttp://www.dbestwatches.com/index.php?main_page=product_info&cPath=11_12&products_id=45894
p974
aVhttp://www.dbestwatches.com/index.php?main_page=product_info&cPath=11_12&products_id=45892
p975
aVhttp://www.dbestwatches.com/index.php?main_page=product_info&cPath=11_12&products_id=41453
p976
aVhttp://www.dbestwatches.com/index.php?main_page=product_info&cPath=11_12&products_id=45476
p977
aVhttp://www.dbestwatches.com/index.php?main_page=product_info&cPath=11_12&products_id=44080
p978
aVhttp://www.dbestwatches.com/index.php?main_page=product_info&cPath=11_12&products_id=39504
p979
asVSpeedmaster
p980
(lp981
Vhttp://www.dbestwatches.com/index.php?main_page=product_info&cPath=11_394&products_id=40950
p982
aVhttp://www.dbestwatches.com/index.php?main_page=product_info&cPath=11_394&products_id=44609
p983
aVhttp://www.dbestwatches.com/index.php?main_page=product_info&cPath=11_394&products_id=42381
p984
aVhttp://www.dbestwatches.com/index.php?main_page=product_info&cPath=11_394&products_id=45019
p985
aVhttp://www.dbestwatches.com/index.php?main_page=product_info&cPath=11_394&products_id=44277
p986
aVhttp://www.dbestwatches.com/index.php?main_page=product_info&cPath=11_394&products_id=44958
p987
aVhttp://www.dbestwatches.com/index.php?main_page=product_info&cPath=11_394&products_id=45659
p988
aVhttp://www.dbestwatches.com/index.php?main_page=product_info&cPath=11_394&products_id=42558
p989
aVhttp://www.dbestwatches.com/index.php?main_page=product_info&cPath=11_394&products_id=45568
p990
aVhttp://www.dbestwatches.com/index.php?main_page=product_info&cPath=11_394&products_id=44074
p991
aVhttp://www.dbestwatches.com/index.php?main_page=product_info&cPath=11_394&products_id=43913
p992
aVhttp://www.dbestwatches.com/index.php?main_page=product_info&cPath=11_394&products_id=45757
p993
aVhttp://www.dbestwatches.com/index.php?main_page=product_info&cPath=11_394&products_id=44108
p994
aVhttp://www.dbestwatches.com/index.php?main_page=product_info&cPath=11_394&products_id=45957
p995
aVhttp://www.dbestwatches.com/index.php?main_page=product_info&cPath=11_394&products_id=40158
p996
aVhttp://www.dbestwatches.com/index.php?main_page=product_info&cPath=11_394&products_id=42087
p997
aVhttp://www.dbestwatches.com/index.php?main_page=product_info&cPath=11_394&products_id=45956
p998
aVhttp://www.dbestwatches.com/index.php?main_page=product_info&cPath=11_394&products_id=37814
p999
aVhttp://www.dbestwatches.com/index.php?main_page=product_info&cPath=11_394&products_id=45951
p1000
aVhttp://www.dbestwatches.com/index.php?main_page=product_info&cPath=11_394&products_id=44808
p1001
aVhttp://www.dbestwatches.com/index.php?main_page=product_info&cPath=11_394&products_id=45953
p1002
aVhttp://www.dbestwatches.com/index.php?main_page=product_info&cPath=11_394&products_id=45950
p1003
aVhttp://www.dbestwatches.com/index.php?main_page=product_info&cPath=11_394&products_id=45955
p1004
aVhttp://www.dbestwatches.com/index.php?main_page=product_info&cPath=11_394&products_id=43431
p1005
aVhttp://www.dbestwatches.com/index.php?main_page=product_info&cPath=11_394&products_id=37404
p1006
aVhttp://www.dbestwatches.com/index.php?main_page=product_info&cPath=11_394&products_id=44108
p1007
aVhttp://www.dbestwatches.com/index.php?main_page=product_info&cPath=11_394&products_id=45957
p1008
aVhttp://www.dbestwatches.com/index.php?main_page=product_info&cPath=11_394&products_id=40158
p1009
aVhttp://www.dbestwatches.com/index.php?main_page=product_info&cPath=11_394&products_id=42087
p1010
aVhttp://www.dbestwatches.com/index.php?main_page=product_info&cPath=11_394&products_id=45956
p1011
aVhttp://www.dbestwatches.com/index.php?main_page=product_info&cPath=11_394&products_id=37814
p1012
aVhttp://www.dbestwatches.com/index.php?main_page=product_info&cPath=11_394&products_id=45951
p1013
aVhttp://www.dbestwatches.com/index.php?main_page=product_info&cPath=11_394&products_id=44808
p1014
aVhttp://www.dbestwatches.com/index.php?main_page=product_info&cPath=11_394&products_id=45953
p1015
aVhttp://www.dbestwatches.com/index.php?main_page=product_info&cPath=11_394&products_id=45950
p1016
aVhttp://www.dbestwatches.com/index.php?main_page=product_info&cPath=11_394&products_id=45955
p1017
aVhttp://www.dbestwatches.com/index.php?main_page=product_info&cPath=11_394&products_id=43431
p1018
asVSeamaster
p1019
(lp1020
Vhttp://www.dbestwatches.com/index.php?main_page=product_info&cPath=11_109&products_id=42966
p1021
aVhttp://www.dbestwatches.com/index.php?main_page=product_info&cPath=11_109&products_id=42340
p1022
aVhttp://www.dbestwatches.com/index.php?main_page=product_info&cPath=11_109&products_id=38031
p1023
aVhttp://www.dbestwatches.com/index.php?main_page=product_info&cPath=11_109&products_id=45752
p1024
aVhttp://www.dbestwatches.com/index.php?main_page=product_info&cPath=11_109&products_id=45648
p1025
aVhttp://www.dbestwatches.com/index.php?main_page=product_info&cPath=11_109&products_id=45706
p1026
aVhttp://www.dbestwatches.com/index.php?main_page=product_info&cPath=11_109&products_id=45204
p1027
aVhttp://www.dbestwatches.com/index.php?main_page=product_info&cPath=11_109&products_id=45492
p1028
aVhttp://www.dbestwatches.com/index.php?main_page=product_info&cPath=11_109&products_id=45280
p1029
aVhttp://www.dbestwatches.com/index.php?main_page=product_info&cPath=11_109&products_id=41657
p1030
aVhttp://www.dbestwatches.com/index.php?main_page=product_info&cPath=11_109&products_id=45319
p1031
aVhttp://www.dbestwatches.com/index.php?main_page=product_info&cPath=11_109&products_id=44253
p1032
aVhttp://www.dbestwatches.com/index.php?main_page=product_info&cPath=11_109&products_id=44065
p1033
aVhttp://www.dbestwatches.com/index.php?main_page=product_info&cPath=11_109&products_id=45485
p1034
aVhttp://www.dbestwatches.com/index.php?main_page=product_info&cPath=11_109&products_id=42331
p1035
aVhttp://www.dbestwatches.com/index.php?main_page=product_info&cPath=11_109&products_id=45472
p1036
aVhttp://www.dbestwatches.com/index.php?main_page=product_info&cPath=11_109&products_id=44717
p1037
aVhttp://www.dbestwatches.com/index.php?main_page=product_info&cPath=11_109&products_id=44675
p1038
aVhttp://www.dbestwatches.com/index.php?main_page=product_info&cPath=11_109&products_id=42798
p1039
aVhttp://www.dbestwatches.com/index.php?main_page=product_info&cPath=11_109&products_id=43210
p1040
aVhttp://www.dbestwatches.com/index.php?main_page=product_info&cPath=11_109&products_id=42172
p1041
aVhttp://www.dbestwatches.com/index.php?main_page=product_info&cPath=11_109&products_id=39627
p1042
aVhttp://www.dbestwatches.com/index.php?main_page=product_info&cPath=11_109&products_id=45890
p1043
aVhttp://www.dbestwatches.com/index.php?main_page=product_info&cPath=11_109&products_id=38982
p1044
aVhttp://www.dbestwatches.com/index.php?main_page=product_info&cPath=11_109&products_id=30824
p1045
aVhttp://www.dbestwatches.com/index.php?main_page=product_info&cPath=11_109&products_id=44065
p1046
aVhttp://www.dbestwatches.com/index.php?main_page=product_info&cPath=11_109&products_id=45485
p1047
aVhttp://www.dbestwatches.com/index.php?main_page=product_info&cPath=11_109&products_id=42331
p1048
aVhttp://www.dbestwatches.com/index.php?main_page=product_info&cPath=11_109&products_id=45472
p1049
aVhttp://www.dbestwatches.com/index.php?main_page=product_info&cPath=11_109&products_id=44717
p1050
aVhttp://www.dbestwatches.com/index.php?main_page=product_info&cPath=11_109&products_id=44675
p1051
aVhttp://www.dbestwatches.com/index.php?main_page=product_info&cPath=11_109&products_id=42798
p1052
aVhttp://www.dbestwatches.com/index.php?main_page=product_info&cPath=11_109&products_id=43210
p1053
aVhttp://www.dbestwatches.com/index.php?main_page=product_info&cPath=11_109&products_id=42172
p1054
aVhttp://www.dbestwatches.com/index.php?main_page=product_info&cPath=11_109&products_id=39627
p1055
aVhttp://www.dbestwatches.com/index.php?main_page=product_info&cPath=11_109&products_id=45890
p1056
aVhttp://www.dbestwatches.com/index.php?main_page=product_info&cPath=11_109&products_id=38982
p1057
asVPlanet Ocean
p1058
(lp1059
Vhttp://www.dbestwatches.com/index.php?main_page=product_info&cPath=11_53&products_id=44462
p1060
aVhttp://www.dbestwatches.com/index.php?main_page=product_info&cPath=11_53&products_id=42276
p1061
aVhttp://www.dbestwatches.com/index.php?main_page=product_info&cPath=11_53&products_id=44916
p1062
aVhttp://www.dbestwatches.com/index.php?main_page=product_info&cPath=11_53&products_id=45308
p1063
aVhttp://www.dbestwatches.com/index.php?main_page=product_info&cPath=11_53&products_id=44426
p1064
aVhttp://www.dbestwatches.com/index.php?main_page=product_info&cPath=11_53&products_id=44486
p1065
aVhttp://www.dbestwatches.com/index.php?main_page=product_info&cPath=11_53&products_id=40765
p1066
aVhttp://www.dbestwatches.com/index.php?main_page=product_info&cPath=11_53&products_id=45140
p1067
aVhttp://www.dbestwatches.com/index.php?main_page=product_info&cPath=11_53&products_id=44252
p1068
aVhttp://www.dbestwatches.com/index.php?main_page=product_info&cPath=11_53&products_id=43093
p1069
aVhttp://www.dbestwatches.com/index.php?main_page=product_info&cPath=11_53&products_id=40549
p1070
aVhttp://www.dbestwatches.com/index.php?main_page=product_info&cPath=11_53&products_id=42701
p1071
aVhttp://www.dbestwatches.com/index.php?main_page=product_info&cPath=11_53&products_id=44060
p1072
aVhttp://www.dbestwatches.com/index.php?main_page=product_info&cPath=11_53&products_id=36667
p1073
aVhttp://www.dbestwatches.com/index.php?main_page=product_info&cPath=11_53&products_id=44257
p1074
aVhttp://www.dbestwatches.com/index.php?main_page=product_info&cPath=11_53&products_id=45653
p1075
aVhttp://www.dbestwatches.com/index.php?main_page=product_info&cPath=11_53&products_id=42026
p1076
aVhttp://www.dbestwatches.com/index.php?main_page=product_info&cPath=11_53&products_id=41181
p1077
aVhttp://www.dbestwatches.com/index.php?main_page=product_info&cPath=11_53&products_id=44060
p1078
aVhttp://www.dbestwatches.com/index.php?main_page=product_info&cPath=11_53&products_id=36667
p1079
aVhttp://www.dbestwatches.com/index.php?main_page=product_info&cPath=11_53&products_id=44257
p1080
aVhttp://www.dbestwatches.com/index.php?main_page=product_info&cPath=11_53&products_id=45653
p1081
aVhttp://www.dbestwatches.com/index.php?main_page=product_info&cPath=11_53&products_id=42026
p1082
aVhttp://www.dbestwatches.com/index.php?main_page=product_info&cPath=11_53&products_id=41181
p1083
asVAqua Terra
p1084
(lp1085
Vhttp://www.dbestwatches.com/index.php?main_page=product_info&cPath=11_29&products_id=43670
p1086
aVhttp://www.dbestwatches.com/index.php?main_page=product_info&cPath=11_29&products_id=43851
p1087
aVhttp://www.dbestwatches.com/index.php?main_page=product_info&cPath=11_29&products_id=39122
p1088
aVhttp://www.dbestwatches.com/index.php?main_page=product_info&cPath=11_29&products_id=45427
p1089
aVhttp://www.dbestwatches.com/index.php?main_page=product_info&cPath=11_29&products_id=45470
p1090
aVhttp://www.dbestwatches.com/index.php?main_page=product_info&cPath=11_29&products_id=40659
p1091
aVhttp://www.dbestwatches.com/index.php?main_page=product_info&cPath=11_29&products_id=42943
p1092
aVhttp://www.dbestwatches.com/index.php?main_page=product_info&cPath=11_29&products_id=40634
p1093
aVhttp://www.dbestwatches.com/index.php?main_page=product_info&cPath=11_29&products_id=39506
p1094
aVhttp://www.dbestwatches.com/index.php?main_page=product_info&cPath=11_29&products_id=39695
p1095
aVhttp://www.dbestwatches.com/index.php?main_page=product_info&cPath=11_29&products_id=42937
p1096
aVhttp://www.dbestwatches.com/index.php?main_page=product_info&cPath=11_29&products_id=39286
p1097
aVhttp://www.dbestwatches.com/index.php?main_page=product_info&cPath=11_29&products_id=44627
p1098
aVhttp://www.dbestwatches.com/index.php?main_page=product_info&cPath=11_29&products_id=45661
p1099
aVhttp://www.dbestwatches.com/index.php?main_page=product_info&cPath=11_29&products_id=43558
p1100
aVhttp://www.dbestwatches.com/index.php?main_page=product_info&cPath=11_29&products_id=42286
p1101
aVhttp://www.dbestwatches.com/index.php?main_page=product_info&cPath=11_29&products_id=44119
p1102
aVhttp://www.dbestwatches.com/index.php?main_page=product_info&cPath=11_29&products_id=39119
p1103
aVhttp://www.dbestwatches.com/index.php?main_page=product_info&cPath=11_29&products_id=39718
p1104
aVhttp://www.dbestwatches.com/index.php?main_page=product_info&cPath=11_29&products_id=29829
p1105
aVhttp://www.dbestwatches.com/index.php?main_page=product_info&cPath=11_29&products_id=41078
p1106
aVhttp://www.dbestwatches.com/index.php?main_page=product_info&cPath=11_29&products_id=34221
p1107
aVhttp://www.dbestwatches.com/index.php?main_page=product_info&cPath=11_29&products_id=44627
p1108
aVhttp://www.dbestwatches.com/index.php?main_page=product_info&cPath=11_29&products_id=45661
p1109
aVhttp://www.dbestwatches.com/index.php?main_page=product_info&cPath=11_29&products_id=43558
p1110
aVhttp://www.dbestwatches.com/index.php?main_page=product_info&cPath=11_29&products_id=42286
p1111
aVhttp://www.dbestwatches.com/index.php?main_page=product_info&cPath=11_29&products_id=44119
p1112
aVhttp://www.dbestwatches.com/index.php?main_page=product_info&cPath=11_29&products_id=39119
p1113
aVhttp://www.dbestwatches.com/index.php?main_page=product_info&cPath=11_29&products_id=39718
p1114
aVhttp://www.dbestwatches.com/index.php?main_page=product_info&cPath=11_29&products_id=29829
p1115
aVhttp://www.dbestwatches.com/index.php?main_page=product_info&cPath=11_29&products_id=41078
p1116
aVhttp://www.dbestwatches.com/index.php?main_page=product_info&cPath=11_29&products_id=34221
p1117
asVConstellation
p1118
(lp1119
Vhttp://www.dbestwatches.com/index.php?main_page=product_info&cPath=11_146&products_id=45549
p1120
aVhttp://www.dbestwatches.com/index.php?main_page=product_info&cPath=11_146&products_id=44282
p1121
aVhttp://www.dbestwatches.com/index.php?main_page=product_info&cPath=11_146&products_id=45471
p1122
aVhttp://www.dbestwatches.com/index.php?main_page=product_info&cPath=11_146&products_id=37809
p1123
aVhttp://www.dbestwatches.com/index.php?main_page=product_info&cPath=11_146&products_id=44116
p1124
aVhttp://www.dbestwatches.com/index.php?main_page=product_info&cPath=11_146&products_id=45891
p1125
aVhttp://www.dbestwatches.com/index.php?main_page=product_info&cPath=11_146&products_id=45092
p1126
aVhttp://www.dbestwatches.com/index.php?main_page=product_info&cPath=11_146&products_id=37892
p1127
aVhttp://www.dbestwatches.com/index.php?main_page=product_info&cPath=11_146&products_id=44787
p1128
aVhttp://www.dbestwatches.com/index.php?main_page=product_info&cPath=11_146&products_id=41377
p1129
aVhttp://www.dbestwatches.com/index.php?main_page=product_info&cPath=11_146&products_id=42278
p1130
aVhttp://www.dbestwatches.com/index.php?main_page=product_info&cPath=11_146&products_id=42266
p1131
aVhttp://www.dbestwatches.com/index.php?main_page=product_info&cPath=11_146&products_id=45154
p1132
aVhttp://www.dbestwatches.com/index.php?main_page=product_info&cPath=11_146&products_id=39289
p1133
aVhttp://www.dbestwatches.com/index.php?main_page=product_info&cPath=11_146&products_id=37808
p1134
aVhttp://www.dbestwatches.com/index.php?main_page=product_info&cPath=11_146&products_id=42925
p1135
aVhttp://www.dbestwatches.com/index.php?main_page=product_info&cPath=11_146&products_id=45385
p1136
aVhttp://www.dbestwatches.com/index.php?main_page=product_info&cPath=11_146&products_id=43697
p1137
aVhttp://www.dbestwatches.com/index.php?main_page=product_info&cPath=11_146&products_id=41010
p1138
aVhttp://www.dbestwatches.com/index.php?main_page=product_info&cPath=11_146&products_id=45377
p1139
aVhttp://www.dbestwatches.com/index.php?main_page=product_info&cPath=11_146&products_id=45387
p1140
aVhttp://www.dbestwatches.com/index.php?main_page=product_info&cPath=11_146&products_id=45051
p1141
aVhttp://www.dbestwatches.com/index.php?main_page=product_info&cPath=11_146&products_id=41734
p1142
aVhttp://www.dbestwatches.com/index.php?main_page=product_info&cPath=11_146&products_id=42258
p1143
aVhttp://www.dbestwatches.com/index.php?main_page=product_info&cPath=11_146&products_id=41458
p1144
aVhttp://www.dbestwatches.com/index.php?main_page=product_info&cPath=11_146&products_id=45380
p1145
aVhttp://www.dbestwatches.com/index.php?main_page=product_info&cPath=11_146&products_id=42607
p1146
aVhttp://www.dbestwatches.com/index.php?main_page=product_info&cPath=11_146&products_id=42755
p1147
aVhttp://www.dbestwatches.com/index.php?main_page=product_info&cPath=11_146&products_id=45496
p1148
aVhttp://www.dbestwatches.com/index.php?main_page=product_info&cPath=11_146&products_id=45154
p1149
aVhttp://www.dbestwatches.com/index.php?main_page=product_info&cPath=11_146&products_id=39289
p1150
aVhttp://www.dbestwatches.com/index.php?main_page=product_info&cPath=11_146&products_id=37808
p1151
aVhttp://www.dbestwatches.com/index.php?main_page=product_info&cPath=11_146&products_id=42925
p1152
aVhttp://www.dbestwatches.com/index.php?main_page=product_info&cPath=11_146&products_id=45385
p1153
aVhttp://www.dbestwatches.com/index.php?main_page=product_info&cPath=11_146&products_id=43697
p1154
aVhttp://www.dbestwatches.com/index.php?main_page=product_info&cPath=11_146&products_id=41010
p1155
aVhttp://www.dbestwatches.com/index.php?main_page=product_info&cPath=11_146&products_id=45377
p1156
aVhttp://www.dbestwatches.com/index.php?main_page=product_info&cPath=11_146&products_id=45387
p1157
aVhttp://www.dbestwatches.com/index.php?main_page=product_info&cPath=11_146&products_id=45051
p1158
aVhttp://www.dbestwatches.com/index.php?main_page=product_info&cPath=11_146&products_id=41734
p1159
aVhttp://www.dbestwatches.com/index.php?main_page=product_info&cPath=11_146&products_id=42258
p1160
assVBreitling
p1161
(dp1162
VAvenger Seawolf
p1163
(lp1164
Vhttp://www.dbestwatches.com/index.php?main_page=product_info&cPath=32_183&products_id=45498
p1165
aVhttp://www.dbestwatches.com/index.php?main_page=product_info&cPath=32_183&products_id=38896
p1166
asVMontbrillant
p1167
(lp1168
S'http://www.dbestwatches.com/index.php?main_page=product_info&cPath=32_408&products_id=44444'
p1169
asVBentley
p1170
(lp1171
Vhttp://www.dbestwatches.com/index.php?main_page=product_info&cPath=32_376&products_id=43676
p1172
aVhttp://www.dbestwatches.com/index.php?main_page=product_info&cPath=32_376&products_id=43320
p1173
aVhttp://www.dbestwatches.com/index.php?main_page=product_info&cPath=32_376&products_id=39270
p1174
aVhttp://www.dbestwatches.com/index.php?main_page=product_info&cPath=32_376&products_id=39536
p1175
aVhttp://www.dbestwatches.com/index.php?main_page=product_info&cPath=32_376&products_id=40831
p1176
aVhttp://www.dbestwatches.com/index.php?main_page=product_info&cPath=32_376&products_id=38570
p1177
aVhttp://www.dbestwatches.com/index.php?main_page=product_info&cPath=32_376&products_id=43108
p1178
aVhttp://www.dbestwatches.com/index.php?main_page=product_info&cPath=32_376&products_id=44165
p1179
aVhttp://www.dbestwatches.com/index.php?main_page=product_info&cPath=32_376&products_id=42106
p1180
aVhttp://www.dbestwatches.com/index.php?main_page=product_info&cPath=32_376&products_id=38212
p1181
aVhttp://www.dbestwatches.com/index.php?main_page=product_info&cPath=32_376&products_id=45903
p1182
aVhttp://www.dbestwatches.com/index.php?main_page=product_info&cPath=32_376&products_id=43655
p1183
aVhttp://www.dbestwatches.com/index.php?main_page=product_info&cPath=32_376&products_id=45902
p1184
aVhttp://www.dbestwatches.com/index.php?main_page=product_info&cPath=32_376&products_id=34703
p1185
aVhttp://www.dbestwatches.com/index.php?main_page=product_info&cPath=32_376&products_id=34699
p1186
aVhttp://www.dbestwatches.com/index.php?main_page=product_info&cPath=32_376&products_id=45902
p1187
aVhttp://www.dbestwatches.com/index.php?main_page=product_info&cPath=32_376&products_id=34703
p1188
aVhttp://www.dbestwatches.com/index.php?main_page=product_info&cPath=32_376&products_id=34699
p1189
asVColt
p1190
(lp1191
Vhttp://www.dbestwatches.com/index.php?main_page=product_info&cPath=32_163&products_id=43492
p1192
aVhttp://www.dbestwatches.com/index.php?main_page=product_info&cPath=32_163&products_id=42097
p1193
aVhttp://www.dbestwatches.com/index.php?main_page=product_info&cPath=32_163&products_id=45746
p1194
aVhttp://www.dbestwatches.com/index.php?main_page=product_info&cPath=32_163&products_id=45483
p1195
aVhttp://www.dbestwatches.com/index.php?main_page=product_info&cPath=32_163&products_id=45159
p1196
aVhttp://www.dbestwatches.com/index.php?main_page=product_info&cPath=32_163&products_id=42754
p1197
aVhttp://www.dbestwatches.com/index.php?main_page=product_info&cPath=32_163&products_id=45416
p1198
aVhttp://www.dbestwatches.com/index.php?main_page=product_info&cPath=32_163&products_id=43467
p1199
aVhttp://www.dbestwatches.com/index.php?main_page=product_info&cPath=32_163&products_id=43935
p1200
aVhttp://www.dbestwatches.com/index.php?main_page=product_info&cPath=32_163&products_id=42605
p1201
aVhttp://www.dbestwatches.com/index.php?main_page=product_info&cPath=32_163&products_id=43746
p1202
aVhttp://www.dbestwatches.com/index.php?main_page=product_info&cPath=32_163&products_id=42807
p1203
asVSuperOcean
p1204
(lp1205
Vhttp://www.dbestwatches.com/index.php?main_page=product_info&cPath=32_231&products_id=44662
p1206
aVhttp://www.dbestwatches.com/index.php?main_page=product_info&cPath=32_231&products_id=45708
p1207
aVhttp://www.dbestwatches.com/index.php?main_page=product_info&cPath=32_231&products_id=41798
p1208
aVhttp://www.dbestwatches.com/index.php?main_page=product_info&cPath=32_231&products_id=45831
p1209
aVhttp://www.dbestwatches.com/index.php?main_page=product_info&cPath=32_231&products_id=43602
p1210
aVhttp://www.dbestwatches.com/index.php?main_page=product_info&cPath=32_231&products_id=40486
p1211
aVhttp://www.dbestwatches.com/index.php?main_page=product_info&cPath=32_231&products_id=41130
p1212
aVhttp://www.dbestwatches.com/index.php?main_page=product_info&cPath=32_231&products_id=42678
p1213
aVhttp://www.dbestwatches.com/index.php?main_page=product_info&cPath=32_231&products_id=41134
p1214
aVhttp://www.dbestwatches.com/index.php?main_page=product_info&cPath=32_231&products_id=43606
p1215
asVChrono Avenger
p1216
(lp1217
Vhttp://www.dbestwatches.com/index.php?main_page=product_info&cPath=32_387&products_id=42795
p1218
aVhttp://www.dbestwatches.com/index.php?main_page=product_info&cPath=32_387&products_id=43949
p1219
aVhttp://www.dbestwatches.com/index.php?main_page=product_info&cPath=32_387&products_id=40502
p1220
aVhttp://www.dbestwatches.com/index.php?main_page=product_info&cPath=32_387&products_id=44995
p1221
aVhttp://www.dbestwatches.com/index.php?main_page=product_info&cPath=32_387&products_id=43897
p1222
aVhttp://www.dbestwatches.com/index.php?main_page=product_info&cPath=32_387&products_id=45100
p1223
aVhttp://www.dbestwatches.com/index.php?main_page=product_info&cPath=32_387&products_id=45490
p1224
aVhttp://www.dbestwatches.com/index.php?main_page=product_info&cPath=32_387&products_id=45390
p1225
aVhttp://www.dbestwatches.com/index.php?main_page=product_info&cPath=32_387&products_id=44346
p1226
aVhttp://www.dbestwatches.com/index.php?main_page=product_info&cPath=32_387&products_id=43598
p1227
aVhttp://www.dbestwatches.com/index.php?main_page=product_info&cPath=32_387&products_id=39612
p1228
asVTransocean
p1229
(lp1230
Vhttp://www.dbestwatches.com/index.php?main_page=product_info&cPath=32_346&products_id=43599
p1231
aVhttp://www.dbestwatches.com/index.php?main_page=product_info&cPath=32_346&products_id=43832
p1232
aVhttp://www.dbestwatches.com/index.php?main_page=product_info&cPath=32_346&products_id=44917
p1233
aVhttp://www.dbestwatches.com/index.php?main_page=product_info&cPath=32_346&products_id=43607
p1234
aVhttp://www.dbestwatches.com/index.php?main_page=product_info&cPath=32_346&products_id=43686
p1235
aVhttp://www.dbestwatches.com/index.php?main_page=product_info&cPath=32_346&products_id=44402
p1236
aVhttp://www.dbestwatches.com/index.php?main_page=product_info&cPath=32_346&products_id=43615
p1237
aVhttp://www.dbestwatches.com/index.php?main_page=product_info&cPath=32_346&products_id=43600
p1238
aVhttp://www.dbestwatches.com/index.php?main_page=product_info&cPath=32_346&products_id=45916
p1239
aVhttp://www.dbestwatches.com/index.php?main_page=product_info&cPath=32_346&products_id=41129
p1240
aVhttp://www.dbestwatches.com/index.php?main_page=product_info&cPath=32_346&products_id=43005
p1241
asVAerospace
p1242
(lp1243
Vhttp://www.dbestwatches.com/index.php?main_page=product_info&cPath=32_438&products_id=43044
p1244
aVhttp://www.dbestwatches.com/index.php?main_page=product_info&cPath=32_438&products_id=45138
p1245
aVhttp://www.dbestwatches.com/index.php?main_page=product_info&cPath=32_438&products_id=38104
p1246
aVhttp://www.dbestwatches.com/index.php?main_page=product_info&cPath=32_438&products_id=40282
p1247
aVhttp://www.dbestwatches.com/index.php?main_page=product_info&cPath=32_438&products_id=44851
p1248
asVChronomat
p1249
(lp1250
Vhttp://www.dbestwatches.com/index.php?main_page=product_info&cPath=32_68&products_id=45248
p1251
aVhttp://www.dbestwatches.com/index.php?main_page=product_info&cPath=32_68&products_id=39280
p1252
aVhttp://www.dbestwatches.com/index.php?main_page=product_info&cPath=32_68&products_id=45104
p1253
aVhttp://www.dbestwatches.com/index.php?main_page=product_info&cPath=32_68&products_id=44638
p1254
aVhttp://www.dbestwatches.com/index.php?main_page=product_info&cPath=32_68&products_id=44878
p1255
aVhttp://www.dbestwatches.com/index.php?main_page=product_info&cPath=32_68&products_id=44115
p1256
aVhttp://www.dbestwatches.com/index.php?main_page=product_info&cPath=32_68&products_id=37284
p1257
aVhttp://www.dbestwatches.com/index.php?main_page=product_info&cPath=32_68&products_id=40919
p1258
aVhttp://www.dbestwatches.com/index.php?main_page=product_info&cPath=32_68&products_id=44379
p1259
aVhttp://www.dbestwatches.com/index.php?main_page=product_info&cPath=32_68&products_id=41695
p1260
aVhttp://www.dbestwatches.com/index.php?main_page=product_info&cPath=32_68&products_id=45200
p1261
aVhttp://www.dbestwatches.com/index.php?main_page=product_info&cPath=32_68&products_id=38778
p1262
aVhttp://www.dbestwatches.com/index.php?main_page=product_info&cPath=32_68&products_id=38152
p1263
aVhttp://www.dbestwatches.com/index.php?main_page=product_info&cPath=32_68&products_id=43613
p1264
aVhttp://www.dbestwatches.com/index.php?main_page=product_info&cPath=32_68&products_id=42124
p1265
aVhttp://www.dbestwatches.com/index.php?main_page=product_info&cPath=32_68&products_id=44633
p1266
aVhttp://www.dbestwatches.com/index.php?main_page=product_info&cPath=32_68&products_id=42077
p1267
aVhttp://www.dbestwatches.com/index.php?main_page=product_info&cPath=32_68&products_id=43597
p1268
aVhttp://www.dbestwatches.com/index.php?main_page=product_info&cPath=32_68&products_id=38985
p1269
aVhttp://www.dbestwatches.com/index.php?main_page=product_info&cPath=32_68&products_id=42606
p1270
aVhttp://www.dbestwatches.com/index.php?main_page=product_info&cPath=32_68&products_id=44092
p1271
aVhttp://www.dbestwatches.com/index.php?main_page=product_info&cPath=32_68&products_id=45914
p1272
aVhttp://www.dbestwatches.com/index.php?main_page=product_info&cPath=32_68&products_id=33564
p1273
aVhttp://www.dbestwatches.com/index.php?main_page=product_info&cPath=32_68&products_id=43753
p1274
aVhttp://www.dbestwatches.com/index.php?main_page=product_info&cPath=32_68&products_id=44842
p1275
aVhttp://www.dbestwatches.com/index.php?main_page=product_info&cPath=32_68&products_id=44534
p1276
aVhttp://www.dbestwatches.com/index.php?main_page=product_info&cPath=32_68&products_id=45742
p1277
aVhttp://www.dbestwatches.com/index.php?main_page=product_info&cPath=32_68&products_id=45834
p1278
aVhttp://www.dbestwatches.com/index.php?main_page=product_info&cPath=32_68&products_id=34589
p1279
aVhttp://www.dbestwatches.com/index.php?main_page=product_info&cPath=32_68&products_id=39921
p1280
aVhttp://www.dbestwatches.com/index.php?main_page=product_info&cPath=32_68&products_id=41379
p1281
aVhttp://www.dbestwatches.com/index.php?main_page=product_info&cPath=32_68&products_id=39277
p1282
aVhttp://www.dbestwatches.com/index.php?main_page=product_info&cPath=32_68&products_id=45915
p1283
aVhttp://www.dbestwatches.com/index.php?main_page=product_info&cPath=32_68&products_id=39297
p1284
aVhttp://www.dbestwatches.com/index.php?main_page=product_info&cPath=32_68&products_id=40991
p1285
aVhttp://www.dbestwatches.com/index.php?main_page=product_info&cPath=32_68&products_id=45917
p1286
aVhttp://www.dbestwatches.com/index.php?main_page=product_info&cPath=32_68&products_id=38152
p1287
aVhttp://www.dbestwatches.com/index.php?main_page=product_info&cPath=32_68&products_id=43613
p1288
aVhttp://www.dbestwatches.com/index.php?main_page=product_info&cPath=32_68&products_id=42124
p1289
aVhttp://www.dbestwatches.com/index.php?main_page=product_info&cPath=32_68&products_id=44633
p1290
aVhttp://www.dbestwatches.com/index.php?main_page=product_info&cPath=32_68&products_id=42077
p1291
aVhttp://www.dbestwatches.com/index.php?main_page=product_info&cPath=32_68&products_id=43597
p1292
aVhttp://www.dbestwatches.com/index.php?main_page=product_info&cPath=32_68&products_id=38985
p1293
aVhttp://www.dbestwatches.com/index.php?main_page=product_info&cPath=32_68&products_id=42606
p1294
aVhttp://www.dbestwatches.com/index.php?main_page=product_info&cPath=32_68&products_id=44092
p1295
aVhttp://www.dbestwatches.com/index.php?main_page=product_info&cPath=32_68&products_id=45914
p1296
aVhttp://www.dbestwatches.com/index.php?main_page=product_info&cPath=32_68&products_id=33564
p1297
aVhttp://www.dbestwatches.com/index.php?main_page=product_info&cPath=32_68&products_id=43753
p1298
asVNavitimer
p1299
(lp1300
Vhttp://www.dbestwatches.com/index.php?main_page=product_info&cPath=32_223&products_id=43441
p1301
aVhttp://www.dbestwatches.com/index.php?main_page=product_info&cPath=32_223&products_id=41629
p1302
aVhttp://www.dbestwatches.com/index.php?main_page=product_info&cPath=32_223&products_id=36354
p1303
aVhttp://www.dbestwatches.com/index.php?main_page=product_info&cPath=32_223&products_id=43988
p1304
aVhttp://www.dbestwatches.com/index.php?main_page=product_info&cPath=32_223&products_id=39830
p1305
aVhttp://www.dbestwatches.com/index.php?main_page=product_info&cPath=32_223&products_id=42544
p1306
aVhttp://www.dbestwatches.com/index.php?main_page=product_info&cPath=32_223&products_id=45911
p1307
aVhttp://www.dbestwatches.com/index.php?main_page=product_info&cPath=32_223&products_id=44405
p1308
aVhttp://www.dbestwatches.com/index.php?main_page=product_info&cPath=32_223&products_id=45050
p1309
aVhttp://www.dbestwatches.com/index.php?main_page=product_info&cPath=32_223&products_id=42405
p1310
aVhttp://www.dbestwatches.com/index.php?main_page=product_info&cPath=32_223&products_id=44498
p1311
aVhttp://www.dbestwatches.com/index.php?main_page=product_info&cPath=32_223&products_id=43358
p1312
aVhttp://www.dbestwatches.com/index.php?main_page=product_info&cPath=32_223&products_id=45904
p1313
aVhttp://www.dbestwatches.com/index.php?main_page=product_info&cPath=32_223&products_id=45906
p1314
aVhttp://www.dbestwatches.com/index.php?main_page=product_info&cPath=32_223&products_id=45908
p1315
aVhttp://www.dbestwatches.com/index.php?main_page=product_info&cPath=32_223&products_id=45905
p1316
aVhttp://www.dbestwatches.com/index.php?main_page=product_info&cPath=32_223&products_id=45910
p1317
aVhttp://www.dbestwatches.com/index.php?main_page=product_info&cPath=32_223&products_id=45913
p1318
aVhttp://www.dbestwatches.com/index.php?main_page=product_info&cPath=32_223&products_id=45909
p1319
aVhttp://www.dbestwatches.com/index.php?main_page=product_info&cPath=32_223&products_id=45904
p1320
aVhttp://www.dbestwatches.com/index.php?main_page=product_info&cPath=32_223&products_id=45906
p1321
aVhttp://www.dbestwatches.com/index.php?main_page=product_info&cPath=32_223&products_id=45908
p1322
aVhttp://www.dbestwatches.com/index.php?main_page=product_info&cPath=32_223&products_id=45905
p1323
aVhttp://www.dbestwatches.com/index.php?main_page=product_info&cPath=32_223&products_id=45910
p1324
aVhttp://www.dbestwatches.com/index.php?main_page=product_info&cPath=32_223&products_id=45913
p1325
aVhttp://www.dbestwatches.com/index.php?main_page=product_info&cPath=32_223&products_id=45909
p1326
ass.